Microchip MPLAB XC8 Compiler V2.45

Linker command line:

-W-3 \
  --edf=C:\Program Files\Microchip\xc8\v2.45\pic\dat\20230818022343_en.msgs \
  -cn -h+dist/default/debug\handrex_test.X.debug.sym \
  --cmf=dist/default/debug\handrex_test.X.debug.cmf -z -Q16F690 \
  -oC:\Users\kana\AppData\Local\Temp\xcAsoao.\driver_tmp_3.o \
  --defsym=__MPLAB_BUILD=1 --fixupoverflow=error \
  -Mdist/default/debug/handrex_test.X.debug.map \
  --md=C:\Users\kana\AppData\Local\Temp\xcAsoao.\driver_tmp_0.dat -E1 \
  -ver=XC8 Compiler --acfsm=1493 -AHEAP=0120h-016Fh -pheap=HEAP \
  -ACODE=00h-07FFhx2 -ASTRCODE=00h-0FFFh -ASTRING=00h-0FFhx16 \
  -ACONST=00h-0FFhx16 -AENTRY=00h-0FFhx16 -ACOMMON=070h-07Fh \
  -ABANK0=020h-06Fh -ABANK1=0A0h-0EFh -ABANK2=0120h-016Fh \
  -ARAM=020h-06Fh,0A0h-0EFh,0120h-016Fh \
  -AABS1=020h-07Fh,0A0h-0EFh,0120h-016Fh -ASFR0=00h-01Fh -ASFR1=080h-09Fh \
  -ASFR2=0100h-011Fh -ASFR3=0180h-01EFh -ACONFIG=02007h-02007h -DCONFIG=2 \
  -AIDLOC=02000h-02003h -DIDLOC=2 -AEEDATA=00h-0FFh/02100h \
  -peeprom_data=EEDATA -DEEDATA=2 -DCODE=2 -DSTRCODE=2 -DSTRING=2 -DCONST=2 \
  -DENTRY=2 -preset_vec=00h,intentry=04h,init,end_init -ppowerup=CODE \
  -pcinit=CODE -pfunctab=ENTRY -k \
  C:\Users\kana\AppData\Local\Temp\xcAsoao.\driver_tmp_12.o \
  dist/default/debug\handrex_test.X.debug.o 

Object code version is 3.11

Machine type is 16F690



                Name                               Link     Load   Length Selector   Space Scale
C:\Users\kana\AppData\Local\Temp\xcAsoao.\driver_tmp_12.o
                heap                                120      120       50      120       7
                end_init                              F        F        2        8       0
                reset_vec                             0        0        2        0       0
                config                             2007     2007        1        0       4
dist/default/debug\handrex_test.X.debug.o
                cinit                                11       11       16        8       0
                intentry                              4        4        B        8       0
                config                             2007     2007        1        0       4
                text34                              714      714       15        8       0
                text33                              55E      55E       50        8       0
                text32                              4A1      4A1       67        8       0
                text31                              2C4      2C4       BA        8       0
                text30                              69A      69A       25        8       0
                text29                              5FB      5FB       42        8       0
                text28                              6BF      6BF       24        8       0
                text27                              6E3      6E3       1C        8       0
                text26                              79C      79C        7      E90       0
                text25                              748      748        D      E90       0
                text24                              795      795        7      E90       0
                text23                              7BD      7BD        4      E90       0
                text22                              7A8      7A8        5      E90       0
                text21                              7B9      7B9        4      E90       0
                text20                              729      729       11        8       0
                text19                              7B5      7B5        4      E90       0
                text18                              66F      66F       2B        8       0
                text17                              5AE      5AE       4D        8       0
                text16                              1E6      1E6       DE        8       0
                text15                              37E      37E       B6        8       0
                text14                               27       27      1BF        8       0
                text13                              63D      63D       32        8       0
                text12                              508      508       56        8       0
                text11                              78E      78E        7      E90       0
                text10                              434      434       6D        8       0
                text9                               787      787        7      E90       0
                text8                               780      780        7      E90       0
                text7                               7A3      7A3        5      E90       0
                text6                               7B1      7B1        4      E90       0
                text5                               761      761        B      E90       0
                text4                               6FF      6FF       15        8       0
                text3                               776      776        A      E90       0
                text2                               7AD      7AD        4      E90       0
                text1                               76C      76C        A      E90       0
                maintext                            755      755        C      E90       0
                cstackBANK0                          20       20       2B       20       1
                cstackCOMMON                         70       70        E       70       1
                cstackBANK1                          A0       A0       35       A0       1
                bssBANK1                             D5       D5        9       A0       1
                bssBANK0                             4B       4B        6       20       1
                strings                             73A      73A        E      E74       0

TOTAL           Name                               Link     Load   Length     Space
        CLASS   HEAP           
                heap                                120      120       50         7

        CLASS   CODE           
                end_init                              F        F        2         0
                cinit                                11       11       16         0
                intentry                              4        4        B         0
                reset_vec                             0        0        2         0
                text34                              714      714       15         0
                text33                              55E      55E       50         0
                text32                              4A1      4A1       67         0
                text31                              2C4      2C4       BA         0
                text30                              69A      69A       25         0
                text29                              5FB      5FB       42         0
                text28                              6BF      6BF       24         0
                text27                              6E3      6E3       1C         0
                text26                              79C      79C        7         0
                text25                              748      748        D         0
                text24                              795      795        7         0
                text23                              7BD      7BD        4         0
                text22                              7A8      7A8        5         0
                text21                              7B9      7B9        4         0
                text20                              729      729       11         0
                text19                              7B5      7B5        4         0
                text18                              66F      66F       2B         0
                text17                              5AE      5AE       4D         0
                text16                              1E6      1E6       DE         0
                text15                              37E      37E       B6         0
                text14                               27       27      1BF         0
                text13                              63D      63D       32         0
                text12                              508      508       56         0
                text11                              78E      78E        7         0
                text10                              434      434       6D         0
                text9                               787      787        7         0
                text8                               780      780        7         0
                text7                               7A3      7A3        5         0
                text6                               7B1      7B1        4         0
                text5                               761      761        B         0
                text4                               6FF      6FF       15         0
                text3                               776      776        A         0
                text2                               7AD      7AD        4         0
                text1                               76C      76C        A         0
                maintext                            755      755        C         0

        CLASS   STRCODE        

        CLASS   STRING         
                strings                             73A      73A        E         0

        CLASS   CONST          

        CLASS   ENTRY          

        CLASS   COMMON         
                cstackCOMMON                         70       70        E         1

        CLASS   BANK0          
                cstackBANK0                          20       20       2B         1
                bssBANK0                             4B       4B        6         1

        CLASS   BANK1          
                cstackBANK1                          A0       A0       35         1
                bssBANK1                             D5       D5        9         1

        CLASS   BANK2          

        CLASS   RAM            

        CLASS   ABS1           
                abs_s1                               7E       7E        2         1

        CLASS   SFR0           

        CLASS   SFR1           

        CLASS   SFR2           

        CLASS   SFR3           

        CLASS   CONFIG         
                config                             2007     2007        1         4

        CLASS   IDLOC          

        CLASS   EEDATA         

        CLASS   BANK3          

        CLASS   STACK          



SEGMENTS        Name                           Load    Length   Top    Selector   Space  Class     Delta

                reset_vec                      000000  000002  000002         0       0  CODE        2
                intentry                       000004  000736  00073A         8       0  CODE        2
                cstackBANK0                    000020  000031  000051        20       1  BANK0       1
                cstackCOMMON                   000070  00000E  00007E        70       1  COMMON      1
                cstackBANK1                    0000A0  00003E  0000DE        A0       1  BANK1       1
                heap                           000120  000050  000170       120       7  HEAP        1
                strings                        00073A  00000E  000748       E74       0  STRING      2
                text25                         000748  000079  0007C1       E90       0  CODE        2


UNUSED ADDRESS RANGES

        Name                Unused          Largest block    Delta
        BANK0            0051-006F             1F           1
        BANK1            00DE-00EF             12           1
        BANK2            0120-016F             50           1
        CODE             0002-0003              2           2
                         07C1-0FFF             3F
        CONST            0002-0003              2           2
                         07C1-0FFF            100
        EEDATA           2100-21FF            100           2
        ENTRY            0002-0003              2           2
                         07C1-0FFF            100
        IDLOC            2000-2003              4           2
        RAM              0051-006F             1F           1
                         00DE-00EF             12
                         0120-016F             50
        SFR0             0000-001F             20           1
        SFR1             0080-009F             20           1
        SFR2             0100-011F             20           1
        SFR3             0180-01EF             70           1
        STRCODE          0002-0003              2           2
                         07C1-0FFF            83F
        STRING           0002-0003              2           2
                         07C1-0FFF            100

                                  Symbol Table

?___awdiv                               cstackCOMMON 0076
?___expand_heap                         cstackCOMMON 0070
?___xxtofl                              cstackBANK0  0020
?_gather_LED_info                       cstackCOMMON 0070
?_get_conversion_result                 cstackBANK0  002E
?_is_adc_conversion_done                cstackCOMMON 0070
?_is_crossing_zero_point                cstackBANK0  0044
?_is_pwr_btn_pressed                    cstackCOMMON 0070
?_malloc                                cstackBANK1  00AE
?i1___wmul                              cstackCOMMON 0070
_ADCON0bits                             (abs)        001F
_ADCON1bits                             (abs)        009F
_ADRESH                                 (abs)        001E
_ADRESL                                 (abs)        009E
_ANSEL                                  (abs)        011E
_ANSELHbits                             (abs)        011F
_ANSELbits                              (abs)        011E
_INTCONbits                             (abs)        000B
_IOCBbits                               (abs)        0116
_OSCCONbits                             (abs)        008F
_PIE1bits                               (abs)        008C
_PIR1bits                               (abs)        000C
_PORTA                                  (abs)        0005
_PORTB                                  (abs)        0006
_PORTC                                  (abs)        0007
_PORTCbits                              (abs)        0007
_TRISA                                  (abs)        0085
_TRISB                                  (abs)        0086
_TRISBbits                              (abs)        0086
_TRISC                                  (abs)        0087
_TRISCbits                              (abs)        0087
__H__absolute__                         __absolute__ 0000
__Habs1                                 abs1         0000
__Hbank0                                bank0        0000
__Hbank1                                bank1        0000
__Hbank2                                bank2        0000
__Hbank3                                bank3        0000
__HbssBANK0                             bssBANK0     0000
__HbssBANK1                             bssBANK1     0000
__Hcinit                                cinit        0027
__Hclrtext                              clrtext      0000
__Hcode                                 code         0000
__Hcommon                               common       0000
__Hconfig                               config       2008
__HcstackBANK0                          cstackBANK0  0000
__HcstackBANK1                          cstackBANK1  0000
__HcstackCOMMON                         cstackCOMMON 0000
__Heeprom_data                          eeprom_data  0000
__Hend_init                             end_init     0011
__Hfunctab                              functab      0000
__Hheap                                 heap         0170
__Hinit                                 init         000F
__Hintentry                             intentry     000F
__Hmaintext                             maintext     0000
__Hpowerup                              powerup      0000
__Hram                                  ram          0000
__Hreset_vec                            reset_vec    0002
__Hsfr0                                 sfr0         0000
__Hsfr1                                 sfr1         0000
__Hsfr2                                 sfr2         0000
__Hsfr3                                 sfr3         0000
__Hspace_0                              (abs)        07C1
__Hspace_1                              (abs)        00DE
__Hspace_2                              (abs)        0000
__Hspace_3                              (abs)        0000
__Hspace_4                              (abs)        400F
__Hstack                                stack        0000
__Hstrings                              strings      0000
__Htext                                 text         0000
__L__absolute__                         __absolute__ 0000
__Labs1                                 abs1         0000
__Lbank0                                bank0        0000
__Lbank1                                bank1        0000
__Lbank2                                bank2        0000
__Lbank3                                bank3        0000
__LbssBANK0                             bssBANK0     0000
__LbssBANK1                             bssBANK1     0000
__Lcinit                                cinit        0011
__Lclrtext                              clrtext      0000
__Lcode                                 code         0000
__Lcommon                               common       0000
__Lconfig                               config       0000
__LcstackBANK0                          cstackBANK0  0000
__LcstackBANK1                          cstackBANK1  0000
__LcstackCOMMON                         cstackCOMMON 0000
__Leeprom_data                          eeprom_data  0000
__Lend_init                             end_init     000F
__Lfunctab                              functab      0000
__Lheap                                 heap         0120
__Linit                                 init         000F
__Lintentry                             intentry     0004
__Lmaintext                             maintext     0000
__Lpowerup                              powerup      0000
__Lram                                  ram          0000
__Lreset_vec                            reset_vec    0000
__Lsfr0                                 sfr0         0000
__Lsfr1                                 sfr1         0000
__Lsfr2                                 sfr2         0000
__Lsfr3                                 sfr3         0000
__Lspace_0                              (abs)        0000
__Lspace_1                              (abs)        0000
__Lspace_2                              (abs)        0000
__Lspace_3                              (abs)        0000
__Lspace_4                              (abs)        0000
__Lstack                                stack        0000
__Lstrings                              strings      0000
__Ltext                                 text         0000
__S0                                    (abs)        07C1
__S1                                    (abs)        00DE
__S3                                    (abs)        0000
__S7                                    (abs)        0170
___awdiv                                text32       04A1
___awdiv@counter                        cstackCOMMON 007A
___awdiv@dividend                       cstackCOMMON 0078
___awdiv@divisor                        cstackCOMMON 0076
___awdiv@quotient                       cstackCOMMON 007C
___awdiv@sign                           cstackCOMMON 007B
___expand_heap                          text17       05AE
___expand_heap@n                        cstackBANK1  00A1
___expand_heap@new_brkp                 cstackBANK1  00A3
___expand_heap@pn                       cstackBANK1  00A0
___fleq                                 text33       055E
___fleq@ff1                             cstackBANK0  0038
___fleq@ff2                             cstackBANK0  003C
___freelist                             bssBANK1     00DD
___heap_hi                              heap         0170
___heap_lo                              heap         0120
___int_sp                               stack        0000
___int_stack_hi                         stack        0000
___int_stack_lo                         stack        0000
___latbits                              (abs)        0001
___simple_search_fl                     text16       01E6
___simple_search_fl@best                cstackBANK1  00AD
___simple_search_fl@best_last           cstackBANK1  00A8
___simple_search_fl@c                   cstackBANK1  00AC
___simple_search_fl@last                cstackBANK1  00AA
___simple_search_fl@n                   cstackBANK1  00A0
___simple_search_fl@next                cstackBANK1  00AB
___simple_search_fl@remaining_size      cstackBANK1  00A6
___simple_search_fl@split               cstackBANK1  00A9
___sp                                   stack        0000
___stack_hi                             stack        0000
___stack_lo                             stack        0000
___stackhi                              (abs)        0000
___stacklo                              (abs)        0000
___xxtofl                               text31       02C4
___xxtofl@arg                           cstackBANK0  002A
___xxtofl@exp                           cstackBANK0  0029
___xxtofl@sign                          cstackBANK0  0028
___xxtofl@val                           cstackBANK0  0020
__end_of___awdiv                        text32       0508
__end_of___expand_heap                  text17       05FB
__end_of___fleq                         text33       05AE
__end_of___simple_search_fl             text16       02C4
__end_of___xxtofl                       text31       037E
__end_of__initialization                cinit        0024
__end_of__stringtab                     strings      0740
__end_of_blink                          text10       04A1
__end_of_gather_LED_info                text14       01E6
__end_of_get_conversion_result          text29       063D
__end_of_global_setup                   text5        076C
__end_of_is_adc_conversion_done         text34       0729
__end_of_is_crossing_zero_point         text28       06E3
__end_of_is_pwr_btn_pressed             text25       0755
__end_of_isr                            text18       069A
__end_of_led_off                        text13       066F
__end_of_led_on                         text12       055E
__end_of_main                           maintext     0761
__end_of_malloc                         text15       0434
__end_of_pwr_pulse                      text27       06FF
__end_of_reset_adc_interrupt            text26       07A3
__end_of_set_full_pwr                   text7        07A8
__end_of_set_low_pwr                    text24       079C
__end_of_set_state_according_to_pwr_btn text20       073A
__end_of_setup_ADC                      text4        0714
__end_of_setup_GPIO                     text11       0795
__end_of_setup_RB5                      text3        0780
__end_of_setup_RC2                      text9        078E
__end_of_setup_RC7                      text8        0787
__end_of_start_adc_conversion           text2        07B1
__end_of_start_spectating_zero_crossing text1        0776
__end_of_turn_board_off                 text23       07C1
__end_of_turn_board_on                  text6        07B5
__end_ofi1___wmul                       text30       06BF
__end_ofi1_set_full_pwr                 text22       07AD
__end_ofi1_start_adc_conversion         text19       07B9
__end_ofi1_turn_board_on                text21       07BD
__end_ofpwr_pulse@pulse_shift           strings      0744
__end_ofpwr_pulse@pulse_shift_us        strings      0748
__initialization                        cinit        0011
__pbssBANK0                             bssBANK0     004B
__pbssBANK1                             bssBANK1     00D5
__pcstackBANK0                          cstackBANK0  0020
__pcstackBANK1                          cstackBANK1  00A0
__pcstackCOMMON                         cstackCOMMON 0070
__pintentry                             intentry     0004
__pmaintext                             maintext     0755
__pstrings                              strings      073A
__ptext1                                text1        076C
__ptext10                               text10       0434
__ptext11                               text11       078E
__ptext12                               text12       0508
__ptext13                               text13       063D
__ptext14                               text14       0027
__ptext15                               text15       037E
__ptext16                               text16       01E6
__ptext17                               text17       05AE
__ptext18                               text18       066F
__ptext19                               text19       07B5
__ptext2                                text2        07AD
__ptext20                               text20       0729
__ptext21                               text21       07B9
__ptext22                               text22       07A8
__ptext23                               text23       07BD
__ptext24                               text24       0795
__ptext25                               text25       0748
__ptext26                               text26       079C
__ptext27                               text27       06E3
__ptext28                               text28       06BF
__ptext29                               text29       05FB
__ptext3                                text3        0776
__ptext30                               text30       069A
__ptext31                               text31       02C4
__ptext32                               text32       04A1
__ptext33                               text33       055E
__ptext34                               text34       0714
__ptext4                                text4        06FF
__ptext5                                text5        0761
__ptext6                                text6        07B1
__ptext7                                text7        07A3
__ptext8                                text8        0780
__ptext9                                text9        0787
__stringbase                            strings      073F
__stringtab                             strings      073A
_blink                                  text10       0434
_brkp                                   bssBANK1     00D5
_errno                                  bssBANK1     00DB
_gather_LED_info                        text14       0027
_get_conversion_result                  text29       05FB
_global_setup                           text5        0761
_is_adc_conversion_done                 text34       0714
_is_adc_conversion_done$425             cstackCOMMON 0074
_is_crossing_zero_point                 text28       06BF
_is_pwr_btn_pressed                     text25       0748
_isr                                    text18       066F
_led_off                                text13       063D
_led_on                                 text12       0508
_main                                   maintext     0755
_malloc                                 text15       037E
_power_lvl                              bssBANK0     004F
_pwr_pulse                              text27       06E3
_reset_adc_interrupt                    text26       079C
_set_full_pwr                           text7        07A3
_set_low_pwr                            text24       0795
_set_state_according_to_pwr_btn         text20       0729
_setup_ADC                              text4        06FF
_setup_GPIO                             text11       078E
_setup_RB5                              text3        0776
_setup_RC2                              text9        0787
_setup_RC7                              text8        0780
_start_adc_conversion                   text2        07AD
_start_spectating_zero_crossing         text1        076C
_turn_board_off                         text23       07BD
_turn_board_on                          text6        07B1
blink@i                                 cstackBANK1  00D3
blink@leds_info                         cstackBANK1  00D1
btemp                                   (abs)        007E
end_of_initialization                   cinit        0024
gather_LED_info@LED1                    cstackBANK1  00C0
gather_LED_info@LED2                    cstackBANK1  00C2
gather_LED_info@LED3                    cstackBANK1  00C4
gather_LED_info@LED4                    cstackBANK1  00C6
gather_LED_info@LED5                    cstackBANK1  00C8
gather_LED_info@leds_info               cstackBANK1  00CA
get_conversion_result@adc_res           cstackBANK0  0036
get_conversion_result@voltage           cstackBANK0  0032
i1___wmul                               text30       069A
i1___wmul@multiplicand                  cstackCOMMON 0072
i1___wmul@multiplier                    cstackCOMMON 0070
i1___wmul@product                       cstackCOMMON 0074
i1_set_full_pwr                         text22       07A8
i1_start_adc_conversion                 text19       07B5
i1_turn_board_on                        text21       07B9
interrupt_function                      intentry     0004
intlevel0                               functab      0000
intlevel1                               functab      0000
intlevel2                               functab      0000
intlevel3                               functab      0000
intlevel4                               functab      0000
intlevel5                               functab      0000
led_off@led                             cstackBANK1  00A0
led_off@shift                           cstackBANK1  00A5
led_on@led                              cstackBANK1  00A0
led_on@shift                            cstackBANK1  00A7
malloc@cur                              bssBANK1     00D9
malloc@end                              bssBANK1     00D7
malloc@lock                             bssBANK0     004B
malloc@m                                cstackBANK1  00B2
malloc@n                                cstackBANK1  00AE
malloc@new                              cstackBANK1  00BA
malloc@p                                cstackBANK1  00B8
malloc@size                             cstackBANK1  00B6
malloc@sz                               cstackBANK1  00B4
reset_vec                               reset_vec    0000
saved_w                                 (abs)        007E
start                                   init         000F
start_initialization                    cinit        0011
wtemp0                                  (abs)        007E


MODULE INFORMATION

Module		Function		Class		Link	Load	Size
C:\Program Files\Microchip\xc8\v2.45\pic\sources\c99\common\Umul16.c

C:\Program Files\Microchip\xc8\v2.45\pic\sources\c99\common\Umul16.c estimated size: 0

task4/state_change.c
		_turn_board_on 		CODE           	07B1	0000	4
		_turn_board_off		CODE           	07BD	0000	4

task4/state_change.c estimated size: 8

C:\Program Files\Microchip\xc8\v2.45\pic\sources\c99\common\fleq.c
		___fleq        		CODE           	055E	0000	80

C:\Program Files\Microchip\xc8\v2.45\pic\sources\c99\common\fleq.c estimated size: 80

C:\Program Files\Microchip\xc8\v2.45\pic\sources\c99\common\expand_heap.c
		___expand_heap 		CODE           	05AE	0000	77

C:\Program Files\Microchip\xc8\v2.45\pic\sources\c99\common\expand_heap.c estimated size: 77

C:\Program Files\Microchip\xc8\v2.45\pic\sources\c99\common\lite_malloc.c
		_malloc        		CODE           	037E	0000	182

C:\Program Files\Microchip\xc8\v2.45\pic\sources\c99\common\lite_malloc.c estimated size: 182

task5/pwr_btn_control.c
		_set_state_according_to_pwr_btn		CODE           	0729	0000	17
		_is_pwr_btn_pressed		CODE           	0748	0000	13
		_setup_RC2     		CODE           	0787	0000	7

task5/pwr_btn_control.c estimated size: 37

task3/adjust_power.c
		_set_low_pwr   		CODE           	0795	0000	7
		_pwr_pulse     		CODE           	06E3	0000	28
		_set_full_pwr  		CODE           	07A3	0000	5
		_setup_RC7     		CODE           	0780	0000	7

task3/adjust_power.c estimated size: 47

C:\Program Files\Microchip\xc8\v2.45\pic\sources\c99\common\lite_free.c
		___simple_search_fl		CODE           	01E6	0000	222

C:\Program Files\Microchip\xc8\v2.45\pic\sources\c99\common\lite_free.c estimated size: 222

shared
		i1_turn_board_on		CODE           	07B9	0000	4
		__stringtab    		STRING         	073A	0000	6
		i1___wmul      		CODE           	069A	0000	37
		i1_set_full_pwr		CODE           	07A8	0000	5
		__initialization		CODE           	0011	0000	19
		pwr_pulse@pulse_shift_us		STRING         	0000	0000	0
		pwr_pulse@pulse_shift		STRING         	0000	0000	0
		i1_start_adc_conversion		CODE           	07B5	0000	4

shared estimated size: 75

C:\Program Files\Microchip\xc8\v2.45\pic\sources\c99\common\xxtofl.c
		___xxtofl      		CODE           	02C4	0000	186

C:\Program Files\Microchip\xc8\v2.45\pic\sources\c99\common\xxtofl.c estimated size: 186

task1/blink.c
		_led_off       		CODE           	063D	0000	50
		_setup_GPIO    		CODE           	078E	0000	7
		_gather_LED_info		CODE           	0027	0000	447
		_led_on        		CODE           	0508	0000	86
		_blink         		CODE           	0434	0000	109

task1/blink.c estimated size: 699

main.c
		_main          		CODE           	0755	0000	12
		_isr           		CODE           	066F	0000	43
		_global_setup  		CODE           	0761	0000	11

main.c estimated size: 66

task2/zero_crossing.c
		_start_adc_conversion		CODE           	07AD	0000	4
		_setup_ADC     		CODE           	06FF	0000	21
		_reset_adc_interrupt		CODE           	079C	0000	7
		_get_conversion_result		CODE           	05FB	0000	66
		_is_crossing_zero_point		CODE           	06BF	0000	36
		_start_spectating_zero_crossing		CODE           	076C	0000	10
		_is_adc_conversion_done		CODE           	0714	0000	21
		_setup_RB5     		CODE           	0776	0000	10

task2/zero_crossing.c estimated size: 175

C:\Program Files\Microchip\xc8\v2.45\pic\sources\c99\common\awdiv.c
		___awdiv       		CODE           	04A1	0000	103

C:\Program Files\Microchip\xc8\v2.45\pic\sources\c99\common\awdiv.c estimated size: 103

