

Microchip MPLAB XC8 Assembler V2.45 build 20230818022343 
                                                                                               Mon Nov 13 18:26:03 2023

Microchip MPLAB XC8 C Compiler v2.45 (Free license) build 20230818022343 Og1 
     1                           	processor	16F690
     2                           	pagewidth 120
     3                           	opt	flic
     4                           	psect	idataBANK1,global,class=CODE,delta=2,noexec
     5                           	psect	cinit,global,class=CODE,merge=1,delta=2
     6                           	psect	bssBANK0,global,class=BANK0,space=1,delta=1,noexec
     7                           	psect	bssBANK1,global,class=BANK1,space=1,delta=1,noexec
     8                           	psect	dataBANK1,global,class=BANK1,space=1,delta=1,noexec
     9                           	psect	clrtext,global,class=CODE,delta=2
    10                           	psect	cstackBANK2,global,class=BANK2,space=1,delta=1,noexec
    11                           	psect	cstackBANK1,global,class=BANK1,space=1,delta=1,noexec
    12                           	psect	cstackCOMMON,global,class=COMMON,space=1,delta=1,noexec
    13                           	psect	cstackBANK0,global,class=BANK0,space=1,delta=1,noexec
    14                           	psect	maintext,global,class=CODE,split=1,delta=2
    15                           	psect	text1,local,class=CODE,merge=1,delta=2
    16                           	psect	text2,local,class=CODE,merge=1,delta=2
    17                           	psect	text3,local,class=CODE,merge=1,delta=2
    18                           	psect	text4,local,class=CODE,merge=1,delta=2
    19                           	psect	text5,local,class=CODE,merge=1,delta=2
    20                           	psect	text6,local,class=CODE,merge=1,delta=2
    21                           	psect	text7,local,class=CODE,merge=1,delta=2
    22                           	psect	text8,local,class=CODE,merge=1,delta=2
    23                           	psect	text9,local,class=CODE,merge=1,delta=2
    24                           	psect	text10,local,class=CODE,merge=1,delta=2
    25                           	psect	text11,local,class=CODE,merge=1,delta=2
    26                           	psect	text12,local,class=CODE,merge=1,delta=2
    27                           	psect	text13,local,class=CODE,merge=1,delta=2
    28                           	psect	text14,local,class=CODE,merge=1,delta=2
    29                           	psect	intentry,global,class=CODE,delta=2
    30                           	psect	text15,local,class=CODE,merge=1,delta=2
    31                           	psect	text16,local,class=CODE,merge=1,delta=2
    32                           	psect	text17,local,class=CODE,merge=1,delta=2
    33                           	psect	text18,local,class=CODE,merge=1,delta=2,group=1
    34                           	psect	text19,local,class=CODE,merge=1,delta=2
    35                           	psect	text20,local,class=CODE,merge=1,delta=2
    36                           	psect	text21,local,class=CODE,merge=1,delta=2
    37                           	psect	text22,local,class=CODE,merge=1,delta=2
    38                           	psect	text23,local,class=CODE,merge=1,delta=2
    39                           	psect	text24,local,class=CODE,merge=1,delta=2
    40                           	psect	text25,local,class=CODE,merge=1,delta=2
    41                           	psect	text26,local,class=CODE,merge=1,delta=2
    42                           	psect	text27,local,class=CODE,merge=1,delta=2
    43                           	psect	text28,local,class=CODE,merge=1,delta=2
    44                           	psect	text29,local,class=CODE,merge=1,delta=2,group=1
    45                           	psect	text30,local,class=CODE,merge=1,delta=2,group=1
    46                           	psect	text31,local,class=CODE,merge=1,delta=2,group=1
    47                           	psect	text32,local,class=CODE,merge=1,delta=2
    48                           	psect	text33,local,class=CODE,merge=1,delta=2
    49                           	psect	text34,local,class=CODE,merge=1,delta=2
    50                           	psect	text35,local,class=CODE,merge=1,delta=2
    51                           	psect	text36,local,class=CODE,merge=1,delta=2
    52                           	psect	text37,local,class=CODE,merge=1,delta=2,group=1
    53                           	psect	text38,local,class=CODE,merge=1,delta=2,group=1
    54                           	psect	text39,local,class=CODE,merge=1,delta=2,group=1
    55                           	psect	text40,local,class=CODE,merge=1,delta=2,group=1
    56                           	psect	text41,local,class=CODE,merge=1,delta=2,group=1
    57                           	psect	text42,local,class=CODE,merge=1,delta=2,group=1
    58                           	psect	text43,local,class=CODE,merge=1,delta=2,group=1
    59                           	psect	config,global,abs,ovrld,class=CONFIG,space=4,delta=2,noexec
    60                           	dabs	1,0x7E,2
    61     0000                     
    62                           ; Generated 22/03/2023 GMT
    63                           ; 
    64                           ; Copyright © 2023, Microchip Technology Inc. and its subsidiaries ("Microchip")
    65                           ; All rights reserved.
    66                           ; 
    67                           ; This software is developed by Microchip Technology Inc. and its subsidiaries ("Microch
      +                          ip").
    68                           ; 
    69                           ; Redistribution and use in source and binary forms, with or without modification, are
    70                           ; permitted provided that the following conditions are met:
    71                           ; 
    72                           ;     1. Redistributions of source code must retain the above copyright notice, this lis
      +                          t of
    73                           ;        conditions and the following disclaimer.
    74                           ; 
    75                           ;     2. Redistributions in binary form must reproduce the above copyright notice, this 
      +                          list
    76                           ;        of conditions and the following disclaimer in the documentation and/or other
    77                           ;        materials provided with the distribution. Publication is not required when
    78                           ;        this file is used in an embedded application.
    79                           ; 
    80                           ;     3. Microchip's name may not be used to endorse or promote products derived from th
      +                          is
    81                           ;        software without specific prior written permission.
    82                           ; 
    83                           ; THIS SOFTWARE IS PROVIDED BY MICROCHIP "AS IS" AND ANY EXPRESS OR IMPLIED WARRANTIES,
    84                           ; INCLUDING, BUT NOT LIMITED TO, THE IMPLIED WARRANTIES OF MERCHANTABILITY AND FITNESS F
      +                          OR
    85                           ; PURPOSE ARE DISCLAIMED.  IN NO EVENT SHALL MICROCHIP BE LIABLE FOR ANY DIRECT, INDIREC
      +                          T,
    86                           ; INCIDENTAL, SPECIAL, EXEMPLARY, OR CONSEQUENTIAL DAMAGES (INCLUDING BUT NOT LIMITED TO
    87                           ; PROCUREMENT OF SUBSTITUTE GOODS OR SERVICES; LOSS OF USE, DATA OR PROFITS; OR BUSINESS
    88                           ; INTERRUPTION) HOWSOEVER CAUSED AND ON ANY THEORY OF LIABILITY, WHETHER IN CONTRACT, ST
      +                          RICT
    89                           ; LIABILITY, OR TORT (INCLUDING NEGLIGENCE OR OTHERWISE) ARISING IN ANY WAY OUT OF THE U
      +                          SE OF
    90                           ; THIS SOFTWARE, EVEN IF ADVISED OF THE POSSIBILITY OF SUCH DAMAGE.
    91                           ; 
    92                           ; 
    93                           ; Code-generator required, PIC16F690 Definitions
    94                           ; 
    95                           ; SFR Addresses
    96     0000                     	;# 
    97     0001                     	;# 
    98     0002                     	;# 
    99     0003                     	;# 
   100     0004                     	;# 
   101     0005                     	;# 
   102     0006                     	;# 
   103     0007                     	;# 
   104     000A                     	;# 
   105     000B                     	;# 
   106     000C                     	;# 
   107     000D                     	;# 
   108     000E                     	;# 
   109     000E                     	;# 
   110     000F                     	;# 
   111     0010                     	;# 
   112     0011                     	;# 
   113     0012                     	;# 
   114     0013                     	;# 
   115     0014                     	;# 
   116     0015                     	;# 
   117     0015                     	;# 
   118     0016                     	;# 
   119     0017                     	;# 
   120     0018                     	;# 
   121     0019                     	;# 
   122     001A                     	;# 
   123     001C                     	;# 
   124     001D                     	;# 
   125     001E                     	;# 
   126     001F                     	;# 
   127     0081                     	;# 
   128     0085                     	;# 
   129     0086                     	;# 
   130     0087                     	;# 
   131     008C                     	;# 
   132     008D                     	;# 
   133     008E                     	;# 
   134     008F                     	;# 
   135     0090                     	;# 
   136     0092                     	;# 
   137     0093                     	;# 
   138     0093                     	;# 
   139     0093                     	;# 
   140     0094                     	;# 
   141     0095                     	;# 
   142     0095                     	;# 
   143     0096                     	;# 
   144     0096                     	;# 
   145     0097                     	;# 
   146     0098                     	;# 
   147     0099                     	;# 
   148     009A                     	;# 
   149     009B                     	;# 
   150     009E                     	;# 
   151     009F                     	;# 
   152     010C                     	;# 
   153     010C                     	;# 
   154     010D                     	;# 
   155     010E                     	;# 
   156     010F                     	;# 
   157     0115                     	;# 
   158     0116                     	;# 
   159     0118                     	;# 
   160     0119                     	;# 
   161     011A                     	;# 
   162     011B                     	;# 
   163     011E                     	;# 
   164     011F                     	;# 
   165     018C                     	;# 
   166     018D                     	;# 
   167     019D                     	;# 
   168     019E                     	;# 
   169     0000                     	;# 
   170     0001                     	;# 
   171     0002                     	;# 
   172     0003                     	;# 
   173     0004                     	;# 
   174     0005                     	;# 
   175     0006                     	;# 
   176     0007                     	;# 
   177     000A                     	;# 
   178     000B                     	;# 
   179     000C                     	;# 
   180     000D                     	;# 
   181     000E                     	;# 
   182     000E                     	;# 
   183     000F                     	;# 
   184     0010                     	;# 
   185     0011                     	;# 
   186     0012                     	;# 
   187     0013                     	;# 
   188     0014                     	;# 
   189     0015                     	;# 
   190     0015                     	;# 
   191     0016                     	;# 
   192     0017                     	;# 
   193     0018                     	;# 
   194     0019                     	;# 
   195     001A                     	;# 
   196     001C                     	;# 
   197     001D                     	;# 
   198     001E                     	;# 
   199     001F                     	;# 
   200     0081                     	;# 
   201     0085                     	;# 
   202     0086                     	;# 
   203     0087                     	;# 
   204     008C                     	;# 
   205     008D                     	;# 
   206     008E                     	;# 
   207     008F                     	;# 
   208     0090                     	;# 
   209     0092                     	;# 
   210     0093                     	;# 
   211     0093                     	;# 
   212     0093                     	;# 
   213     0094                     	;# 
   214     0095                     	;# 
   215     0095                     	;# 
   216     0096                     	;# 
   217     0096                     	;# 
   218     0097                     	;# 
   219     0098                     	;# 
   220     0099                     	;# 
   221     009A                     	;# 
   222     009B                     	;# 
   223     009E                     	;# 
   224     009F                     	;# 
   225     010C                     	;# 
   226     010C                     	;# 
   227     010D                     	;# 
   228     010E                     	;# 
   229     010F                     	;# 
   230     0115                     	;# 
   231     0116                     	;# 
   232     0118                     	;# 
   233     0119                     	;# 
   234     011A                     	;# 
   235     011B                     	;# 
   236     011E                     	;# 
   237     011F                     	;# 
   238     018C                     	;# 
   239     018D                     	;# 
   240     019D                     	;# 
   241     019E                     	;# 
   242     0000                     	;# 
   243     0001                     	;# 
   244     0002                     	;# 
   245     0003                     	;# 
   246     0004                     	;# 
   247     0005                     	;# 
   248     0006                     	;# 
   249     0007                     	;# 
   250     000A                     	;# 
   251     000B                     	;# 
   252     000C                     	;# 
   253     000D                     	;# 
   254     000E                     	;# 
   255     000E                     	;# 
   256     000F                     	;# 
   257     0010                     	;# 
   258     0011                     	;# 
   259     0012                     	;# 
   260     0013                     	;# 
   261     0014                     	;# 
   262     0015                     	;# 
   263     0015                     	;# 
   264     0016                     	;# 
   265     0017                     	;# 
   266     0018                     	;# 
   267     0019                     	;# 
   268     001A                     	;# 
   269     001C                     	;# 
   270     001D                     	;# 
   271     001E                     	;# 
   272     001F                     	;# 
   273     0081                     	;# 
   274     0085                     	;# 
   275     0086                     	;# 
   276     0087                     	;# 
   277     008C                     	;# 
   278     008D                     	;# 
   279     008E                     	;# 
   280     008F                     	;# 
   281     0090                     	;# 
   282     0092                     	;# 
   283     0093                     	;# 
   284     0093                     	;# 
   285     0093                     	;# 
   286     0094                     	;# 
   287     0095                     	;# 
   288     0095                     	;# 
   289     0096                     	;# 
   290     0096                     	;# 
   291     0097                     	;# 
   292     0098                     	;# 
   293     0099                     	;# 
   294     009A                     	;# 
   295     009B                     	;# 
   296     009E                     	;# 
   297     009F                     	;# 
   298     010C                     	;# 
   299     010C                     	;# 
   300     010D                     	;# 
   301     010E                     	;# 
   302     010F                     	;# 
   303     0115                     	;# 
   304     0116                     	;# 
   305     0118                     	;# 
   306     0119                     	;# 
   307     011A                     	;# 
   308     011B                     	;# 
   309     011E                     	;# 
   310     011F                     	;# 
   311     018C                     	;# 
   312     018D                     	;# 
   313     019D                     	;# 
   314     019E                     	;# 
   315     0000                     	;# 
   316     0001                     	;# 
   317     0002                     	;# 
   318     0003                     	;# 
   319     0004                     	;# 
   320     0005                     	;# 
   321     0006                     	;# 
   322     0007                     	;# 
   323     000A                     	;# 
   324     000B                     	;# 
   325     000C                     	;# 
   326     000D                     	;# 
   327     000E                     	;# 
   328     000E                     	;# 
   329     000F                     	;# 
   330     0010                     	;# 
   331     0011                     	;# 
   332     0012                     	;# 
   333     0013                     	;# 
   334     0014                     	;# 
   335     0015                     	;# 
   336     0015                     	;# 
   337     0016                     	;# 
   338     0017                     	;# 
   339     0018                     	;# 
   340     0019                     	;# 
   341     001A                     	;# 
   342     001C                     	;# 
   343     001D                     	;# 
   344     001E                     	;# 
   345     001F                     	;# 
   346     0081                     	;# 
   347     0085                     	;# 
   348     0086                     	;# 
   349     0087                     	;# 
   350     008C                     	;# 
   351     008D                     	;# 
   352     008E                     	;# 
   353     008F                     	;# 
   354     0090                     	;# 
   355     0092                     	;# 
   356     0093                     	;# 
   357     0093                     	;# 
   358     0093                     	;# 
   359     0094                     	;# 
   360     0095                     	;# 
   361     0095                     	;# 
   362     0096                     	;# 
   363     0096                     	;# 
   364     0097                     	;# 
   365     0098                     	;# 
   366     0099                     	;# 
   367     009A                     	;# 
   368     009B                     	;# 
   369     009E                     	;# 
   370     009F                     	;# 
   371     010C                     	;# 
   372     010C                     	;# 
   373     010D                     	;# 
   374     010E                     	;# 
   375     010F                     	;# 
   376     0115                     	;# 
   377     0116                     	;# 
   378     0118                     	;# 
   379     0119                     	;# 
   380     011A                     	;# 
   381     011B                     	;# 
   382     011E                     	;# 
   383     011F                     	;# 
   384     018C                     	;# 
   385     018D                     	;# 
   386     019D                     	;# 
   387     019E                     	;# 
   388     0000                     	;# 
   389     0001                     	;# 
   390     0002                     	;# 
   391     0003                     	;# 
   392     0004                     	;# 
   393     0005                     	;# 
   394     0006                     	;# 
   395     0007                     	;# 
   396     000A                     	;# 
   397     000B                     	;# 
   398     000C                     	;# 
   399     000D                     	;# 
   400     000E                     	;# 
   401     000E                     	;# 
   402     000F                     	;# 
   403     0010                     	;# 
   404     0011                     	;# 
   405     0012                     	;# 
   406     0013                     	;# 
   407     0014                     	;# 
   408     0015                     	;# 
   409     0015                     	;# 
   410     0016                     	;# 
   411     0017                     	;# 
   412     0018                     	;# 
   413     0019                     	;# 
   414     001A                     	;# 
   415     001C                     	;# 
   416     001D                     	;# 
   417     001E                     	;# 
   418     001F                     	;# 
   419     0081                     	;# 
   420     0085                     	;# 
   421     0086                     	;# 
   422     0087                     	;# 
   423     008C                     	;# 
   424     008D                     	;# 
   425     008E                     	;# 
   426     008F                     	;# 
   427     0090                     	;# 
   428     0092                     	;# 
   429     0093                     	;# 
   430     0093                     	;# 
   431     0093                     	;# 
   432     0094                     	;# 
   433     0095                     	;# 
   434     0095                     	;# 
   435     0096                     	;# 
   436     0096                     	;# 
   437     0097                     	;# 
   438     0098                     	;# 
   439     0099                     	;# 
   440     009A                     	;# 
   441     009B                     	;# 
   442     009E                     	;# 
   443     009F                     	;# 
   444     010C                     	;# 
   445     010C                     	;# 
   446     010D                     	;# 
   447     010E                     	;# 
   448     010F                     	;# 
   449     0115                     	;# 
   450     0116                     	;# 
   451     0118                     	;# 
   452     0119                     	;# 
   453     011A                     	;# 
   454     011B                     	;# 
   455     011E                     	;# 
   456     011F                     	;# 
   457     018C                     	;# 
   458     018D                     	;# 
   459     019D                     	;# 
   460     019E                     	;# 
   461     0000                     	;# 
   462     0001                     	;# 
   463     0002                     	;# 
   464     0003                     	;# 
   465     0004                     	;# 
   466     0005                     	;# 
   467     0006                     	;# 
   468     0007                     	;# 
   469     000A                     	;# 
   470     000B                     	;# 
   471     000C                     	;# 
   472     000D                     	;# 
   473     000E                     	;# 
   474     000E                     	;# 
   475     000F                     	;# 
   476     0010                     	;# 
   477     0011                     	;# 
   478     0012                     	;# 
   479     0013                     	;# 
   480     0014                     	;# 
   481     0015                     	;# 
   482     0015                     	;# 
   483     0016                     	;# 
   484     0017                     	;# 
   485     0018                     	;# 
   486     0019                     	;# 
   487     001A                     	;# 
   488     001C                     	;# 
   489     001D                     	;# 
   490     001E                     	;# 
   491     001F                     	;# 
   492     0081                     	;# 
   493     0085                     	;# 
   494     0086                     	;# 
   495     0087                     	;# 
   496     008C                     	;# 
   497     008D                     	;# 
   498     008E                     	;# 
   499     008F                     	;# 
   500     0090                     	;# 
   501     0092                     	;# 
   502     0093                     	;# 
   503     0093                     	;# 
   504     0093                     	;# 
   505     0094                     	;# 
   506     0095                     	;# 
   507     0095                     	;# 
   508     0096                     	;# 
   509     0096                     	;# 
   510     0097                     	;# 
   511     0098                     	;# 
   512     0099                     	;# 
   513     009A                     	;# 
   514     009B                     	;# 
   515     009E                     	;# 
   516     009F                     	;# 
   517     010C                     	;# 
   518     010C                     	;# 
   519     010D                     	;# 
   520     010E                     	;# 
   521     010F                     	;# 
   522     0115                     	;# 
   523     0116                     	;# 
   524     0118                     	;# 
   525     0119                     	;# 
   526     011A                     	;# 
   527     011B                     	;# 
   528     011E                     	;# 
   529     011F                     	;# 
   530     018C                     	;# 
   531     018D                     	;# 
   532     019D                     	;# 
   533     019E                     	;# 
   534     0000                     	;# 
   535     0001                     	;# 
   536     0002                     	;# 
   537     0003                     	;# 
   538     0004                     	;# 
   539     0005                     	;# 
   540     0006                     	;# 
   541     0007                     	;# 
   542     000A                     	;# 
   543     000B                     	;# 
   544     000C                     	;# 
   545     000D                     	;# 
   546     000E                     	;# 
   547     000E                     	;# 
   548     000F                     	;# 
   549     0010                     	;# 
   550     0011                     	;# 
   551     0012                     	;# 
   552     0013                     	;# 
   553     0014                     	;# 
   554     0015                     	;# 
   555     0015                     	;# 
   556     0016                     	;# 
   557     0017                     	;# 
   558     0018                     	;# 
   559     0019                     	;# 
   560     001A                     	;# 
   561     001C                     	;# 
   562     001D                     	;# 
   563     001E                     	;# 
   564     001F                     	;# 
   565     0081                     	;# 
   566     0085                     	;# 
   567     0086                     	;# 
   568     0087                     	;# 
   569     008C                     	;# 
   570     008D                     	;# 
   571     008E                     	;# 
   572     008F                     	;# 
   573     0090                     	;# 
   574     0092                     	;# 
   575     0093                     	;# 
   576     0093                     	;# 
   577     0093                     	;# 
   578     0094                     	;# 
   579     0095                     	;# 
   580     0095                     	;# 
   581     0096                     	;# 
   582     0096                     	;# 
   583     0097                     	;# 
   584     0098                     	;# 
   585     0099                     	;# 
   586     009A                     	;# 
   587     009B                     	;# 
   588     009E                     	;# 
   589     009F                     	;# 
   590     010C                     	;# 
   591     010C                     	;# 
   592     010D                     	;# 
   593     010E                     	;# 
   594     010F                     	;# 
   595     0115                     	;# 
   596     0116                     	;# 
   597     0118                     	;# 
   598     0119                     	;# 
   599     011A                     	;# 
   600     011B                     	;# 
   601     011E                     	;# 
   602     011F                     	;# 
   603     018C                     	;# 
   604     018D                     	;# 
   605     019D                     	;# 
   606     019E                     	;# 
   607     0000                     	;# 
   608     0001                     	;# 
   609     0002                     	;# 
   610     0003                     	;# 
   611     0004                     	;# 
   612     0005                     	;# 
   613     0006                     	;# 
   614     0007                     	;# 
   615     000A                     	;# 
   616     000B                     	;# 
   617     000C                     	;# 
   618     000D                     	;# 
   619     000E                     	;# 
   620     000E                     	;# 
   621     000F                     	;# 
   622     0010                     	;# 
   623     0011                     	;# 
   624     0012                     	;# 
   625     0013                     	;# 
   626     0014                     	;# 
   627     0015                     	;# 
   628     0015                     	;# 
   629     0016                     	;# 
   630     0017                     	;# 
   631     0018                     	;# 
   632     0019                     	;# 
   633     001A                     	;# 
   634     001C                     	;# 
   635     001D                     	;# 
   636     001E                     	;# 
   637     001F                     	;# 
   638     0081                     	;# 
   639     0085                     	;# 
   640     0086                     	;# 
   641     0087                     	;# 
   642     008C                     	;# 
   643     008D                     	;# 
   644     008E                     	;# 
   645     008F                     	;# 
   646     0090                     	;# 
   647     0092                     	;# 
   648     0093                     	;# 
   649     0093                     	;# 
   650     0093                     	;# 
   651     0094                     	;# 
   652     0095                     	;# 
   653     0095                     	;# 
   654     0096                     	;# 
   655     0096                     	;# 
   656     0097                     	;# 
   657     0098                     	;# 
   658     0099                     	;# 
   659     009A                     	;# 
   660     009B                     	;# 
   661     009E                     	;# 
   662     009F                     	;# 
   663     010C                     	;# 
   664     010C                     	;# 
   665     010D                     	;# 
   666     010E                     	;# 
   667     010F                     	;# 
   668     0115                     	;# 
   669     0116                     	;# 
   670     0118                     	;# 
   671     0119                     	;# 
   672     011A                     	;# 
   673     011B                     	;# 
   674     011E                     	;# 
   675     011F                     	;# 
   676     018C                     	;# 
   677     018D                     	;# 
   678     019D                     	;# 
   679     019E                     	;# 
   680     0000                     	;# 
   681     0001                     	;# 
   682     0002                     	;# 
   683     0003                     	;# 
   684     0004                     	;# 
   685     0005                     	;# 
   686     0006                     	;# 
   687     0007                     	;# 
   688     000A                     	;# 
   689     000B                     	;# 
   690     000C                     	;# 
   691     000D                     	;# 
   692     000E                     	;# 
   693     000E                     	;# 
   694     000F                     	;# 
   695     0010                     	;# 
   696     0011                     	;# 
   697     0012                     	;# 
   698     0013                     	;# 
   699     0014                     	;# 
   700     0015                     	;# 
   701     0015                     	;# 
   702     0016                     	;# 
   703     0017                     	;# 
   704     0018                     	;# 
   705     0019                     	;# 
   706     001A                     	;# 
   707     001C                     	;# 
   708     001D                     	;# 
   709     001E                     	;# 
   710     001F                     	;# 
   711     0081                     	;# 
   712     0085                     	;# 
   713     0086                     	;# 
   714     0087                     	;# 
   715     008C                     	;# 
   716     008D                     	;# 
   717     008E                     	;# 
   718     008F                     	;# 
   719     0090                     	;# 
   720     0092                     	;# 
   721     0093                     	;# 
   722     0093                     	;# 
   723     0093                     	;# 
   724     0094                     	;# 
   725     0095                     	;# 
   726     0095                     	;# 
   727     0096                     	;# 
   728     0096                     	;# 
   729     0097                     	;# 
   730     0098                     	;# 
   731     0099                     	;# 
   732     009A                     	;# 
   733     009B                     	;# 
   734     009E                     	;# 
   735     009F                     	;# 
   736     010C                     	;# 
   737     010C                     	;# 
   738     010D                     	;# 
   739     010E                     	;# 
   740     010F                     	;# 
   741     0115                     	;# 
   742     0116                     	;# 
   743     0118                     	;# 
   744     0119                     	;# 
   745     011A                     	;# 
   746     011B                     	;# 
   747     011E                     	;# 
   748     011F                     	;# 
   749     018C                     	;# 
   750     018D                     	;# 
   751     019D                     	;# 
   752     019E                     	;# 
   753                           
   754                           	psect	idataBANK1
   755     0A25                     __pidataBANK1:
   756                           
   757                           ;initializer for _desired_lvl
   758     0A25  342D               	retlw	45
   759     0A26  3400               	retlw	0
   760                           
   761                           ;initializer for _current_lvl
   762     0A27  342D               	retlw	45
   763     0A28  3400               	retlw	0
   764     0011                     _TMR2	set	17
   765     0012                     _T2CONbits	set	18
   766     0010                     _T1CONbits	set	16
   767     000E                     _TMR1L	set	14
   768     000F                     _TMR1H	set	15
   769     0005                     _PORTAbits	set	5
   770     0007                     _PORTCbits	set	7
   771     001E                     _ADRESH	set	30
   772     001F                     _ADCON0bits	set	31
   773     000C                     _PIR1bits	set	12
   774     000B                     _INTCONbits	set	11
   775     0006                     _PORTB	set	6
   776     0007                     _PORTC	set	7
   777     0005                     _PORTA	set	5
   778     0060                     _TMR1IF	set	96
   779     0096                     _IOCAbits	set	150
   780     0095                     _WPUAbits	set	149
   781     0085                     _TRISAbits	set	133
   782     0087                     _TRISCbits	set	135
   783     009E                     _ADRESL	set	158
   784     009F                     _ADCON1bits	set	159
   785     008C                     _PIE1bits	set	140
   786     0086                     _TRISBbits	set	134
   787     008F                     _OSCCONbits	set	143
   788     0086                     _TRISB	set	134
   789     0087                     _TRISC	set	135
   790     0085                     _TRISA	set	133
   791     011E                     _ANSELbits	set	286
   792     0116                     _IOCBbits	set	278
   793     011F                     _ANSELHbits	set	287
   794     011E                     _ANSEL	set	286
   795                           
   796                           	psect	cinit
   797     0011                     start_initialization:	
   798                           ; #config settings
   799                           
   800     0011                     __initialization:
   801                           
   802                           ; Initialize objects allocated to BANK1
   803     0011  1683               	bsf	3,5	;RP0=1, select bank1
   804     0012  1303               	bcf	3,6	;RP1=0, select bank1
   805     0013  158A  2225  118A   	fcall	__pidataBANK1	;fetch initializer
   806     0016  00D7               	movwf	__pdataBANK1& (0+127)
   807     0017  158A  2226  118A   	fcall	__pidataBANK1+1	;fetch initializer
   808     001A  00D8               	movwf	(__pdataBANK1+1)& (0+127)
   809     001B  158A  2227  118A   	fcall	__pidataBANK1+2	;fetch initializer
   810     001E  00D9               	movwf	(__pdataBANK1+2)& (0+127)
   811     001F  158A  2228  118A   	fcall	__pidataBANK1+3	;fetch initializer
   812     0022  00DA               	movwf	(__pdataBANK1+3)& (0+127)
   813                           
   814                           ; Clear objects allocated to BANK1
   815     0023  1383               	bcf	3,7	;select IRP bank0
   816     0024  30C5               	movlw	low __pbssBANK1
   817     0025  0084               	movwf	4
   818     0026  30D7               	movlw	low (__pbssBANK1+18)
   819     0027  118A  27F8  118A   	fcall	clear_ram0
   820                           
   821                           ; Clear objects allocated to BANK0
   822     002A  1283               	bcf	3,5	;RP0=0, select bank0
   823     002B  1303               	bcf	3,6	;RP1=0, select bank0
   824     002C  01EF               	clrf	__pbssBANK0& (0+127)
   825     002D                     end_of_initialization:	
   826                           ;End of C runtime variable initialization code
   827                           
   828     002D                     __end_of__initialization:
   829     002D  0183               	clrf	3
   830     002E  158A  2A6C         	ljmp	_main	;jump to C main() function
   831                           
   832                           	psect	bssBANK0
   833     006F                     __pbssBANK0:
   834     006F                     ___freelist:
   835     006F                     	ds	1
   836                           
   837                           	psect	bssBANK1
   838     00C5                     __pbssBANK1:
   839     00C5                     malloc@lock:
   840     00C5                     	ds	4
   841     00C9                     _brkp:
   842     00C9                     	ds	2
   843     00CB                     malloc@end:
   844     00CB                     	ds	2
   845     00CD                     malloc@cur:
   846     00CD                     	ds	2
   847     00CF                     _errno:
   848     00CF                     	ds	2
   849     00D1                     _timer2_running:
   850     00D1                     	ds	2
   851     00D3                     _timer1_running:
   852     00D3                     	ds	2
   853     00D5                     _power_lvl:
   854     00D5                     	ds	2
   855                           
   856                           	psect	dataBANK1
   857     00D7                     __pdataBANK1:
   858     00D7                     _desired_lvl:
   859     00D7                     	ds	2
   860     00D9                     _current_lvl:
   861     00D9                     	ds	2
   862                           
   863                           	psect	clrtext
   864     07F8                     clear_ram0:	
   865                           ;	Called with FSR containing the base address, and
   866                           ;	W with the last address+1
   867                           
   868     07F8  0064               	clrwdt	;clear the watchdog before getting into this loop
   869     07F9                     clrloop0:
   870     07F9  0180               	clrf	0	;clear RAM location pointed to by FSR
   871     07FA  0A84               	incf	4,f	;increment pointer
   872     07FB  0604               	xorwf	4,w	;XOR with final address
   873     07FC  1903               	btfsc	3,2	;have we reached the end yet?
   874     07FD  3400               	retlw	0	;all done for this memory range, return
   875     07FE  0604               	xorwf	4,w	;XOR again to restore value
   876     07FF  2FF9               	goto	clrloop0	;do the next byte
   877                           
   878                           	psect	cstackBANK2
   879     0000                     __pcstackBANK2:
   880     0000                     ??_start_adc_conversion:
   881     0000                     ??_setup_timer_hardware:	
   882                           ; 1 bytes @ 0x0
   883                           
   884     0000                     ??_setup_RC7:	
   885                           ; 1 bytes @ 0x0
   886                           
   887     0000                     ??_setup_RC2:	
   888                           ; 1 bytes @ 0x0
   889                           
   890     0000                     ??_turn_board_on:	
   891                           ; 1 bytes @ 0x0
   892                           
   893     0000                     ??_setup_engine_managment_ports:	
   894                           ; 1 bytes @ 0x0
   895                           
   896     0000                     ??_start_spectating_zero_crossing:	
   897                           ; 1 bytes @ 0x0
   898                           
   899     0000                     ??_global_setup:	
   900                           ; 1 bytes @ 0x0
   901                           
   902     0000                     ??_main:	
   903                           ; 1 bytes @ 0x0
   904                           
   905     0000                     ??_setup_RB5:	
   906                           ; 1 bytes @ 0x0
   907                           
   908     0000                     ??_setup_ADC:	
   909                           ; 1 bytes @ 0x0
   910                           
   911     0000                     ??_set_full_pwr:	
   912                           ; 1 bytes @ 0x0
   913                           
   914     0000                     ??_setup_RA1:	
   915                           ; 1 bytes @ 0x0
   916                           
   917     0000                     ??_setup_RA2:	
   918                           ; 1 bytes @ 0x0
   919                           
   920                           
   921                           	psect	cstackBANK1
   922     00A0                     __pcstackBANK1:	
   923                           ; 1 bytes @ 0x0
   924                           
   925     00A0                     ??___fltol:
   926                           
   927                           ; 1 bytes @ 0x0
   928     00A0                     	ds	4
   929     00A4                     ___fltol@sign1:
   930                           
   931                           ; 1 bytes @ 0x4
   932     00A4                     	ds	1
   933     00A5                     ___fltol@exp1:
   934                           
   935                           ; 1 bytes @ 0x5
   936     00A5                     	ds	1
   937     00A6                     ?_calculate_timer_counts:
   938     00A6                     calculate_timer_counts@us_to_wait:	
   939                           ; 4 bytes @ 0x6
   940                           
   941                           
   942                           ; 4 bytes @ 0x6
   943     00A6                     	ds	4
   944     00AA                     calculate_timer_counts@secs_to_wait:
   945                           
   946                           ; 4 bytes @ 0xA
   947     00AA                     	ds	4
   948     00AE                     calculate_timer_counts@timer_counts:
   949                           
   950                           ; 4 bytes @ 0xE
   951     00AE                     	ds	4
   952     00B2                     calculate_timer_counts@counts_to_wait:
   953                           
   954                           ; 4 bytes @ 0x12
   955     00B2                     	ds	4
   956     00B6                     ?_sleep_us_thread1:
   957     00B6                     sleep_us_thread1@time:	
   958                           ; 1 bytes @ 0x16
   959                           
   960                           
   961                           ; 2 bytes @ 0x16
   962     00B6                     	ds	2
   963     00B8                     ??_sleep_us_thread1:
   964                           
   965                           ; 1 bytes @ 0x18
   966     00B8                     	ds	4
   967     00BC                     sleep_us_thread1@timer_counts:
   968                           
   969                           ; 4 bytes @ 0x1C
   970     00BC                     	ds	4
   971     00C0                     ??_isr:
   972                           
   973                           ; 1 bytes @ 0x20
   974     00C0                     	ds	3
   975     00C3                     isr@timer_num:
   976                           
   977                           ; 2 bytes @ 0x23
   978     00C3                     	ds	2
   979                           
   980                           	psect	cstackCOMMON
   981     0070                     __pcstackCOMMON:
   982     0070                     ?_stop_timer:
   983     0070                     ?_reset_adc_interrupt:	
   984                           ; 1 bytes @ 0x0
   985                           
   986     0070                     ??_reset_adc_interrupt:	
   987                           ; 1 bytes @ 0x0
   988                           
   989     0070                     ?_set_state_according_to_pwr_btn:	
   990                           ; 1 bytes @ 0x0
   991                           
   992     0070                     ?_board_pwr_pulse:	
   993                           ; 1 bytes @ 0x0
   994                           
   995     0070                     ?_supply_engine_power:	
   996                           ; 1 bytes @ 0x0
   997                           
   998     0070                     ?_start_adc_conversion:	
   999                           ; 1 bytes @ 0x0
  1000                           
  1001     0070                     ?_setup_timer_hardware:	
  1002                           ; 1 bytes @ 0x0
  1003                           
  1004     0070                     ?_setup_RC7:	
  1005                           ; 1 bytes @ 0x0
  1006                           
  1007     0070                     ?_setup_RC2:	
  1008                           ; 1 bytes @ 0x0
  1009                           
  1010     0070                     ?_turn_board_on:	
  1011                           ; 1 bytes @ 0x0
  1012                           
  1013     0070                     ?_setup_engine_managment_ports:	
  1014                           ; 1 bytes @ 0x0
  1015                           
  1016     0070                     ?_start_spectating_zero_crossing:	
  1017                           ; 1 bytes @ 0x0
  1018                           
  1019     0070                     ?_isr:	
  1020                           ; 1 bytes @ 0x0
  1021                           
  1022     0070                     ?_global_setup:	
  1023                           ; 1 bytes @ 0x0
  1024                           
  1025     0070                     ?_main:	
  1026                           ; 1 bytes @ 0x0
  1027                           
  1028     0070                     ?_setup_RB5:	
  1029                           ; 1 bytes @ 0x0
  1030                           
  1031     0070                     ?_setup_ADC:	
  1032                           ; 1 bytes @ 0x0
  1033                           
  1034     0070                     ?_set_low_pwr:	
  1035                           ; 1 bytes @ 0x0
  1036                           
  1037     0070                     ??_set_low_pwr:	
  1038                           ; 1 bytes @ 0x0
  1039                           
  1040     0070                     ?_set_full_pwr:	
  1041                           ; 1 bytes @ 0x0
  1042                           
  1043     0070                     ?_turn_board_off:	
  1044                           ; 1 bytes @ 0x0
  1045                           
  1046     0070                     ??_turn_board_off:	
  1047                           ; 1 bytes @ 0x0
  1048                           
  1049     0070                     ?_setup_RA1:	
  1050                           ; 1 bytes @ 0x0
  1051                           
  1052     0070                     ?_setup_RA2:	
  1053                           ; 1 bytes @ 0x0
  1054                           
  1055     0070                     ?_send_pulse:	
  1056                           ; 1 bytes @ 0x0
  1057                           
  1058     0070                     ?i1_start_adc_conversion:	
  1059                           ; 1 bytes @ 0x0
  1060                           
  1061     0070                     ??i1_start_adc_conversion:	
  1062                           ; 1 bytes @ 0x0
  1063                           
  1064     0070                     ?i1_set_full_pwr:	
  1065                           ; 1 bytes @ 0x0
  1066                           
  1067     0070                     ??i1_set_full_pwr:	
  1068                           ; 1 bytes @ 0x0
  1069                           
  1070     0070                     ?i1_turn_board_on:	
  1071                           ; 1 bytes @ 0x0
  1072                           
  1073     0070                     ??i1_turn_board_on:	
  1074                           ; 1 bytes @ 0x0
  1075                           
  1076     0070                     ?_interrupt_caused_by_timer:	
  1077                           ; 1 bytes @ 0x0
  1078                           
  1079     0070                     ?_is_adc_conversion_done:	
  1080                           ; 2 bytes @ 0x0
  1081                           
  1082     0070                     ?__Umul8_16:	
  1083                           ; 2 bytes @ 0x0
  1084                           
  1085     0070                     ?_is_pwr_btn_pressed:	
  1086                           ; 2 bytes @ 0x0
  1087                           
  1088     0070                     ?___wmul:	
  1089                           ; 2 bytes @ 0x0
  1090                           
  1091     0070                     ?___lwdiv:	
  1092                           ; 2 bytes @ 0x0
  1093                           
  1094     0070                     __Umul8_16@multiplicand:	
  1095                           ; 2 bytes @ 0x0
  1096                           
  1097     0070                     stop_timer@timer_num:	
  1098                           ; 1 bytes @ 0x0
  1099                           
  1100     0070                     ___wmul@multiplier:	
  1101                           ; 2 bytes @ 0x0
  1102                           
  1103     0070                     ___lwdiv@divisor:	
  1104                           ; 2 bytes @ 0x0
  1105                           
  1106                           
  1107                           ; 2 bytes @ 0x0
  1108     0070                     	ds	2
  1109     0072                     ??_interrupt_caused_by_timer:
  1110     0072                     ??_stop_timer:	
  1111                           ; 1 bytes @ 0x2
  1112                           
  1113     0072                     ??_is_adc_conversion_done:	
  1114                           ; 1 bytes @ 0x2
  1115                           
  1116     0072                     ??__Umul8_16:	
  1117                           ; 1 bytes @ 0x2
  1118                           
  1119     0072                     ??_is_pwr_btn_pressed:	
  1120                           ; 1 bytes @ 0x2
  1121                           
  1122     0072                     ___wmul@multiplicand:	
  1123                           ; 1 bytes @ 0x2
  1124                           
  1125     0072                     ___lwdiv@dividend:	
  1126                           ; 2 bytes @ 0x2
  1127                           
  1128                           
  1129                           ; 2 bytes @ 0x2
  1130     0072                     	ds	2
  1131     0074                     ??___wmul:
  1132     0074                     ??___lwdiv:	
  1133                           ; 1 bytes @ 0x4
  1134                           
  1135     0074                     _is_adc_conversion_done$443:	
  1136                           ; 1 bytes @ 0x4
  1137                           
  1138     0074                     ___wmul@product:	
  1139                           ; 1 bytes @ 0x4
  1140                           
  1141     0074                     ___lwdiv@quotient:	
  1142                           ; 2 bytes @ 0x4
  1143                           
  1144     0074                     __Umul8_16@product:	
  1145                           ; 2 bytes @ 0x4
  1146                           
  1147                           
  1148                           ; 2 bytes @ 0x4
  1149     0074                     	ds	1
  1150     0075                     ??_set_state_according_to_pwr_btn:
  1151                           
  1152                           ; 1 bytes @ 0x5
  1153     0075                     	ds	1
  1154     0076                     ?___awdiv:
  1155     0076                     ___lwdiv@counter:	
  1156                           ; 2 bytes @ 0x6
  1157                           
  1158     0076                     ___awdiv@divisor:	
  1159                           ; 1 bytes @ 0x6
  1160                           
  1161     0076                     __Umul8_16@word_mpld:	
  1162                           ; 2 bytes @ 0x6
  1163                           
  1164                           
  1165                           ; 2 bytes @ 0x6
  1166     0076                     	ds	2
  1167     0078                     __Umul8_16@multiplier:
  1168     0078                     ___awdiv@dividend:	
  1169                           ; 1 bytes @ 0x8
  1170                           
  1171                           
  1172                           ; 2 bytes @ 0x8
  1173     0078                     	ds	1
  1174     0079                     ??___flmul:
  1175                           
  1176                           ; 1 bytes @ 0x9
  1177     0079                     	ds	1
  1178     007A                     ??___awdiv:
  1179     007A                     ___awdiv@counter:	
  1180                           ; 1 bytes @ 0xA
  1181                           
  1182                           
  1183                           ; 1 bytes @ 0xA
  1184     007A                     	ds	1
  1185     007B                     ___awdiv@sign:
  1186                           
  1187                           ; 1 bytes @ 0xB
  1188     007B                     	ds	1
  1189     007C                     ___awdiv@quotient:
  1190                           
  1191                           ; 2 bytes @ 0xC
  1192     007C                     	ds	2
  1193     007E                     ??_board_pwr_pulse:
  1194     007E                     ??_supply_engine_power:	
  1195                           ; 1 bytes @ 0xE
  1196                           
  1197     007E                     ??_get_conversion_result:	
  1198                           ; 1 bytes @ 0xE
  1199                           
  1200     007E                     ??_calculate_timer_counts:	
  1201                           ; 1 bytes @ 0xE
  1202                           
  1203     007E                     ??___flsub:	
  1204                           ; 1 bytes @ 0xE
  1205                           
  1206                           
  1207                           	psect	cstackBANK0
  1208     0020                     __pcstackBANK0:	
  1209                           ; 1 bytes @ 0xE
  1210                           
  1211     0020                     ?___flmul:
  1212     0020                     ?___xxtofl:	
  1213                           ; 4 bytes @ 0x0
  1214                           
  1215     0020                     ___flmul@b:	
  1216                           ; 4 bytes @ 0x0
  1217                           
  1218     0020                     ___xxtofl@val:	
  1219                           ; 4 bytes @ 0x0
  1220                           
  1221                           
  1222                           ; 4 bytes @ 0x0
  1223     0020                     	ds	4
  1224     0024                     ??___xxtofl:
  1225     0024                     ___flmul@a:	
  1226                           ; 1 bytes @ 0x4
  1227                           
  1228                           
  1229                           ; 4 bytes @ 0x4
  1230     0024                     	ds	4
  1231     0028                     ___flmul@sign:
  1232     0028                     ___xxtofl@sign:	
  1233                           ; 1 bytes @ 0x8
  1234                           
  1235                           
  1236                           ; 1 bytes @ 0x8
  1237     0028                     	ds	1
  1238     0029                     ___xxtofl@exp:
  1239     0029                     ___flmul@grs:	
  1240                           ; 1 bytes @ 0x9
  1241                           
  1242                           
  1243                           ; 4 bytes @ 0x9
  1244     0029                     	ds	1
  1245     002A                     ___xxtofl@arg:
  1246                           
  1247                           ; 4 bytes @ 0xA
  1248     002A                     	ds	3
  1249     002D                     ___flmul@aexp:
  1250                           
  1251                           ; 1 bytes @ 0xD
  1252     002D                     	ds	1
  1253     002E                     ??_send_pulse:
  1254     002E                     ?_get_conversion_result:	
  1255                           ; 1 bytes @ 0xE
  1256                           
  1257     002E                     ___flmul@bexp:	
  1258                           ; 4 bytes @ 0xE
  1259                           
  1260                           
  1261                           ; 1 bytes @ 0xE
  1262     002E                     	ds	1
  1263     002F                     ___flmul@prod:
  1264                           
  1265                           ; 4 bytes @ 0xF
  1266     002F                     	ds	3
  1267     0032                     get_conversion_result@voltage:
  1268                           
  1269                           ; 4 bytes @ 0x12
  1270     0032                     	ds	1
  1271     0033                     ___flmul@temp:
  1272                           
  1273                           ; 2 bytes @ 0x13
  1274     0033                     	ds	2
  1275     0035                     ?___fldiv:
  1276     0035                     ___fldiv@a:	
  1277                           ; 4 bytes @ 0x15
  1278                           
  1279                           
  1280                           ; 4 bytes @ 0x15
  1281     0035                     	ds	1
  1282     0036                     get_conversion_result@adc_res:
  1283                           
  1284                           ; 2 bytes @ 0x16
  1285     0036                     	ds	2
  1286     0038                     ?___fleq:
  1287     0038                     ___fleq@ff1:	
  1288                           ; 1 bit 
  1289                           
  1290                           
  1291                           ; 4 bytes @ 0x18
  1292     0038                     	ds	1
  1293     0039                     ___fldiv@b:
  1294                           
  1295                           ; 4 bytes @ 0x19
  1296     0039                     	ds	3
  1297     003C                     ___fleq@ff2:
  1298                           
  1299                           ; 4 bytes @ 0x1C
  1300     003C                     	ds	1
  1301     003D                     ??___fldiv:
  1302                           
  1303                           ; 1 bytes @ 0x1D
  1304     003D                     	ds	3
  1305     0040                     ??___fleq:
  1306                           
  1307                           ; 1 bytes @ 0x20
  1308     0040                     	ds	2
  1309     0042                     ___fldiv@rem:
  1310                           
  1311                           ; 4 bytes @ 0x22
  1312     0042                     	ds	2
  1313     0044                     ?_is_crossing_zero_point:
  1314                           
  1315                           ; 2 bytes @ 0x24
  1316     0044                     	ds	2
  1317     0046                     ??_is_crossing_zero_point:
  1318     0046                     ___fldiv@sign:	
  1319                           ; 1 bytes @ 0x26
  1320                           
  1321                           
  1322                           ; 1 bytes @ 0x26
  1323     0046                     	ds	1
  1324     0047                     ___fldiv@new_exp:
  1325                           
  1326                           ; 2 bytes @ 0x27
  1327     0047                     	ds	2
  1328     0049                     ___fldiv@grs:
  1329                           
  1330                           ; 4 bytes @ 0x29
  1331     0049                     	ds	4
  1332     004D                     ___fldiv@bexp:
  1333                           
  1334                           ; 1 bytes @ 0x2D
  1335     004D                     	ds	1
  1336     004E                     ___fldiv@aexp:
  1337                           
  1338                           ; 1 bytes @ 0x2E
  1339     004E                     	ds	1
  1340     004F                     ?___fladd:
  1341     004F                     ___fladd@b:	
  1342                           ; 4 bytes @ 0x2F
  1343                           
  1344                           
  1345                           ; 4 bytes @ 0x2F
  1346     004F                     	ds	4
  1347     0053                     ___fladd@a:
  1348                           
  1349                           ; 4 bytes @ 0x33
  1350     0053                     	ds	4
  1351     0057                     ??___fladd:
  1352                           
  1353                           ; 1 bytes @ 0x37
  1354     0057                     	ds	8
  1355     005F                     ___fladd@signs:
  1356                           
  1357                           ; 1 bytes @ 0x3F
  1358     005F                     	ds	1
  1359     0060                     ___fladd@aexp:
  1360                           
  1361                           ; 1 bytes @ 0x40
  1362     0060                     	ds	1
  1363     0061                     ___fladd@bexp:
  1364                           
  1365                           ; 1 bytes @ 0x41
  1366     0061                     	ds	1
  1367     0062                     ___fladd@grs:
  1368                           
  1369                           ; 1 bytes @ 0x42
  1370     0062                     	ds	1
  1371     0063                     ?___flsub:
  1372     0063                     ___flsub@a:	
  1373                           ; 4 bytes @ 0x43
  1374                           
  1375                           
  1376                           ; 4 bytes @ 0x43
  1377     0063                     	ds	4
  1378     0067                     ___flsub@b:
  1379                           
  1380                           ; 4 bytes @ 0x47
  1381     0067                     	ds	4
  1382     006B                     ?___fltol:
  1383     006B                     ___fltol@f1:	
  1384                           ; 4 bytes @ 0x4B
  1385                           
  1386                           
  1387                           ; 4 bytes @ 0x4B
  1388     006B                     	ds	4
  1389                           
  1390                           	psect	maintext
  1391     0A6C                     __pmaintext:	
  1392 ;;
  1393 ;;Main: autosize = 0, tempsize = 0, incstack = 0, save=0
  1394 ;;
  1395 ;; *************** function _main *****************
  1396 ;; Defined at:
  1397 ;;		line 47 in file "main.c"
  1398 ;; Parameters:    Size  Location     Type
  1399 ;;		None
  1400 ;; Auto vars:     Size  Location     Type
  1401 ;;		None
  1402 ;; Return value:  Size  Location     Type
  1403 ;;                  1    wreg      void 
  1404 ;; Registers used:
  1405 ;;		wreg, status,2, status,0, pclath, cstack
  1406 ;; Tracked objects:
  1407 ;;		On entry : B00/0
  1408 ;;		On exit  : 0/0
  1409 ;;		Unchanged: 0/0
  1410 ;; Data sizes:     COMMON   BANK0   BANK1   BANK2
  1411 ;;      Params:         0       0       0       0
  1412 ;;      Locals:         0       0       0       0
  1413 ;;      Temps:          0       0       0       0
  1414 ;;      Totals:         0       0       0       0
  1415 ;;Total ram usage:        0 bytes
  1416 ;; Hardware stack levels required when called: 9
  1417 ;; This function calls:
  1418 ;;		_global_setup
  1419 ;;		_start_spectating_zero_crossing
  1420 ;; This function is called by:
  1421 ;;		Startup code after reset
  1422 ;; This function uses a non-reentrant model
  1423 ;;
  1424                           
  1425     0A6C                     _main:	
  1426                           ;psect for function _main
  1427                           
  1428     0A6C                     l2968:	
  1429                           ;incstack = 0
  1430 ;; hardware stack exceeded
  1431                           ; Regs used in _main: [wreg+status,2+status,0+pclath+cstack]
  1432                           
  1433                           
  1434                           ;main.c: 50:     global_setup();
  1435     0A6C  158A  22B7  158A   	fcall	_global_setup
  1436                           
  1437                           ;main.c: 51:     start_spectating_zero_crossing();
  1438     0A6F  158A  227F  158A   	fcall	_start_spectating_zero_crossing
  1439     0A72                     l48:	
  1440                           ;main.c: 53:     while (1){
  1441                           
  1442     0A72                     l49:	
  1443                           ;main.c: 55:     }
  1444                           
  1445     0A72  2A72               	goto	l48
  1446     0A73  118A  280F         	ljmp	start
  1447     0A75                     __end_of_main:
  1448                           
  1449                           	psect	text1
  1450     0A7F                     __ptext1:	
  1451 ;; *************** function _start_spectating_zero_crossing *****************
  1452 ;; Defined at:
  1453 ;;		line 47 in file "task2/zero_crossing.c"
  1454 ;; Parameters:    Size  Location     Type
  1455 ;;		None
  1456 ;; Auto vars:     Size  Location     Type
  1457 ;;		None
  1458 ;; Return value:  Size  Location     Type
  1459 ;;                  1    wreg      void 
  1460 ;; Registers used:
  1461 ;;		wreg, status,2, status,0, pclath, cstack
  1462 ;; Tracked objects:
  1463 ;;		On entry : 0/0
  1464 ;;		On exit  : 0/0
  1465 ;;		Unchanged: 0/0
  1466 ;; Data sizes:     COMMON   BANK0   BANK1   BANK2
  1467 ;;      Params:         0       0       0       0
  1468 ;;      Locals:         0       0       0       0
  1469 ;;      Temps:          0       0       0       0
  1470 ;;      Totals:         0       0       0       0
  1471 ;;Total ram usage:        0 bytes
  1472 ;; Hardware stack levels used: 1
  1473 ;; Hardware stack levels required when called: 7
  1474 ;; This function calls:
  1475 ;;		_setup_ADC
  1476 ;;		_setup_RB5
  1477 ;;		_start_adc_conversion
  1478 ;; This function is called by:
  1479 ;;		_main
  1480 ;; This function uses a non-reentrant model
  1481 ;;
  1482                           
  1483     0A7F                     _start_spectating_zero_crossing:	
  1484                           ;psect for function _start_spectating_zero_crossing
  1485                           
  1486     0A7F                     l2962:	
  1487                           ;incstack = 0
  1488                           ; Regs used in _start_spectating_zero_crossing: [wreg+status,2+status,0+pclath+cstack]
  1489                           
  1490                           
  1491                           ;task2/zero_crossing.c: 48:     setup_RB5();
  1492     0A7F  158A  2275  158A   	fcall	_setup_RB5
  1493     0A82                     l2964:
  1494                           
  1495                           ;task2/zero_crossing.c: 49:     setup_ADC();
  1496     0A82  158A  22DE  158A   	fcall	_setup_ADC
  1497     0A85                     l2966:
  1498                           
  1499                           ;task2/zero_crossing.c: 50:     start_adc_conversion();
  1500     0A85  158A  2221  158A   	fcall	_start_adc_conversion
  1501     0A88                     l134:
  1502     0A88  0008               	return
  1503     0A89                     __end_of_start_spectating_zero_crossing:
  1504                           
  1505                           	psect	text2
  1506     0A21                     __ptext2:	
  1507 ;; *************** function _start_adc_conversion *****************
  1508 ;; Defined at:
  1509 ;;		line 22 in file "task2/zero_crossing.c"
  1510 ;; Parameters:    Size  Location     Type
  1511 ;;		None
  1512 ;; Auto vars:     Size  Location     Type
  1513 ;;		None
  1514 ;; Return value:  Size  Location     Type
  1515 ;;                  1    wreg      void 
  1516 ;; Registers used:
  1517 ;;		None
  1518 ;; Tracked objects:
  1519 ;;		On entry : 0/0
  1520 ;;		On exit  : 0/0
  1521 ;;		Unchanged: 0/0
  1522 ;; Data sizes:     COMMON   BANK0   BANK1   BANK2
  1523 ;;      Params:         0       0       0       0
  1524 ;;      Locals:         0       0       0       0
  1525 ;;      Temps:          0       0       0       0
  1526 ;;      Totals:         0       0       0       0
  1527 ;;Total ram usage:        0 bytes
  1528 ;; Hardware stack levels used: 1
  1529 ;; Hardware stack levels required when called: 6
  1530 ;; This function calls:
  1531 ;;		Nothing
  1532 ;; This function is called by:
  1533 ;;		_start_spectating_zero_crossing
  1534 ;; This function uses a non-reentrant model
  1535 ;;
  1536                           
  1537     0A21                     _start_adc_conversion:	
  1538                           ;psect for function _start_adc_conversion
  1539                           
  1540     0A21                     l2922:	
  1541                           ;incstack = 0
  1542                           ; Regs used in _start_adc_conversion: []
  1543                           
  1544                           
  1545                           ;task2/zero_crossing.c: 23:     ADCON0bits.GO_nDONE = 1;
  1546     0A21  1283               	bcf	3,5	;RP0=0, select bank0
  1547     0A22  1303               	bcf	3,6	;RP1=0, select bank0
  1548     0A23  149F               	bsf	31,1	;volatile
  1549     0A24                     l117:
  1550     0A24  0008               	return
  1551     0A25                     __end_of_start_adc_conversion:
  1552                           
  1553                           	psect	text3
  1554     0A75                     __ptext3:	
  1555 ;; *************** function _setup_RB5 *****************
  1556 ;; Defined at:
  1557 ;;		line 4 in file "task2/zero_crossing.c"
  1558 ;; Parameters:    Size  Location     Type
  1559 ;;		None
  1560 ;; Auto vars:     Size  Location     Type
  1561 ;;		None
  1562 ;; Return value:  Size  Location     Type
  1563 ;;                  1    wreg      void 
  1564 ;; Registers used:
  1565 ;;		None
  1566 ;; Tracked objects:
  1567 ;;		On entry : 0/0
  1568 ;;		On exit  : 0/0
  1569 ;;		Unchanged: 0/0
  1570 ;; Data sizes:     COMMON   BANK0   BANK1   BANK2
  1571 ;;      Params:         0       0       0       0
  1572 ;;      Locals:         0       0       0       0
  1573 ;;      Temps:          0       0       0       0
  1574 ;;      Totals:         0       0       0       0
  1575 ;;Total ram usage:        0 bytes
  1576 ;; Hardware stack levels used: 1
  1577 ;; Hardware stack levels required when called: 6
  1578 ;; This function calls:
  1579 ;;		Nothing
  1580 ;; This function is called by:
  1581 ;;		_start_spectating_zero_crossing
  1582 ;; This function uses a non-reentrant model
  1583 ;;
  1584                           
  1585     0A75                     _setup_RB5:	
  1586                           ;psect for function _setup_RB5
  1587                           
  1588     0A75                     l2946:	
  1589                           ;incstack = 0
  1590                           ; Regs used in _setup_RB5: []
  1591                           
  1592                           
  1593                           ;task2/zero_crossing.c: 5:     ANSELHbits.ANS11 = 1;
  1594     0A75  1283               	bcf	3,5	;RP0=0, select bank2
  1595     0A76  1703               	bsf	3,6	;RP1=1, select bank2
  1596     0A77  159F               	bsf	31,3	;volatile
  1597                           
  1598                           ;task2/zero_crossing.c: 6:     TRISBbits.TRISB5 = 1;
  1599     0A78  1683               	bsf	3,5	;RP0=1, select bank1
  1600     0A79  1303               	bcf	3,6	;RP1=0, select bank1
  1601     0A7A  1686               	bsf	6,5	;volatile
  1602                           
  1603                           ;task2/zero_crossing.c: 7:     IOCBbits.IOCB5 = 1;
  1604     0A7B  1283               	bcf	3,5	;RP0=0, select bank2
  1605     0A7C  1703               	bsf	3,6	;RP1=1, select bank2
  1606     0A7D  1696               	bsf	22,5	;volatile
  1607     0A7E                     l111:
  1608     0A7E  0008               	return
  1609     0A7F                     __end_of_setup_RB5:
  1610                           
  1611                           	psect	text4
  1612     0ADE                     __ptext4:	
  1613 ;; *************** function _setup_ADC *****************
  1614 ;; Defined at:
  1615 ;;		line 10 in file "task2/zero_crossing.c"
  1616 ;; Parameters:    Size  Location     Type
  1617 ;;		None
  1618 ;; Auto vars:     Size  Location     Type
  1619 ;;		None
  1620 ;; Return value:  Size  Location     Type
  1621 ;;                  1    wreg      void 
  1622 ;; Registers used:
  1623 ;;		wreg, status,2, status,0
  1624 ;; Tracked objects:
  1625 ;;		On entry : 0/0
  1626 ;;		On exit  : 0/0
  1627 ;;		Unchanged: 0/0
  1628 ;; Data sizes:     COMMON   BANK0   BANK1   BANK2
  1629 ;;      Params:         0       0       0       0
  1630 ;;      Locals:         0       0       0       0
  1631 ;;      Temps:          0       0       0       0
  1632 ;;      Totals:         0       0       0       0
  1633 ;;Total ram usage:        0 bytes
  1634 ;; Hardware stack levels used: 1
  1635 ;; Hardware stack levels required when called: 6
  1636 ;; This function calls:
  1637 ;;		Nothing
  1638 ;; This function is called by:
  1639 ;;		_start_spectating_zero_crossing
  1640 ;; This function uses a non-reentrant model
  1641 ;;
  1642                           
  1643     0ADE                     _setup_ADC:	
  1644                           ;psect for function _setup_ADC
  1645                           
  1646     0ADE                     l2948:	
  1647                           ;incstack = 0
  1648                           ; Regs used in _setup_ADC: [wreg+status,2+status,0]
  1649                           
  1650                           
  1651                           ;task2/zero_crossing.c: 11:     PIE1bits.ADIE = 1;
  1652     0ADE  1683               	bsf	3,5	;RP0=1, select bank1
  1653     0ADF  1303               	bcf	3,6	;RP1=0, select bank1
  1654     0AE0  170C               	bsf	12,6	;volatile
  1655                           
  1656                           ;task2/zero_crossing.c: 12:     PIR1bits.ADIF = 0;
  1657     0AE1  1283               	bcf	3,5	;RP0=0, select bank0
  1658     0AE2  1303               	bcf	3,6	;RP1=0, select bank0
  1659     0AE3  130C               	bcf	12,6	;volatile
  1660                           
  1661                           ;task2/zero_crossing.c: 13:     INTCONbits.PEIE = 1;
  1662     0AE4  170B               	bsf	11,6	;volatile
  1663                           
  1664                           ;task2/zero_crossing.c: 15:     ADCON0bits.ADON = 1;
  1665     0AE5  141F               	bsf	31,0	;volatile
  1666                           
  1667                           ;task2/zero_crossing.c: 16:     ADCON0bits.VCFG = 0;
  1668     0AE6  131F               	bcf	31,6	;volatile
  1669                           
  1670                           ;task2/zero_crossing.c: 17:     ADCON0bits.ADFM = 1;
  1671     0AE7  179F               	bsf	31,7	;volatile
  1672     0AE8                     l2950:
  1673                           
  1674                           ;task2/zero_crossing.c: 18:     ADCON0bits.CHS = 0b1011;
  1675     0AE8  081F               	movf	31,w	;volatile
  1676     0AE9  39C3               	andlw	-61
  1677     0AEA  382C               	iorlw	44
  1678     0AEB  009F               	movwf	31	;volatile
  1679                           
  1680                           ;task2/zero_crossing.c: 19:     ADCON1bits.ADCS = 0b101;
  1681     0AEC  1683               	bsf	3,5	;RP0=1, select bank1
  1682     0AED  1303               	bcf	3,6	;RP1=0, select bank1
  1683     0AEE  081F               	movf	31,w	;volatile
  1684     0AEF  398F               	andlw	-113
  1685     0AF0  3850               	iorlw	80
  1686     0AF1  009F               	movwf	31	;volatile
  1687     0AF2                     l114:
  1688     0AF2  0008               	return
  1689     0AF3                     __end_of_setup_ADC:
  1690                           
  1691                           	psect	text5
  1692     0AB7                     __ptext5:	
  1693 ;; *************** function _global_setup *****************
  1694 ;; Defined at:
  1695 ;;		line 36 in file "main.c"
  1696 ;; Parameters:    Size  Location     Type
  1697 ;;		None
  1698 ;; Auto vars:     Size  Location     Type
  1699 ;;		None
  1700 ;; Return value:  Size  Location     Type
  1701 ;;                  1    wreg      void 
  1702 ;; Registers used:
  1703 ;;		wreg, status,2, status,0, pclath, cstack
  1704 ;; Tracked objects:
  1705 ;;		On entry : 0/0
  1706 ;;		On exit  : 0/0
  1707 ;;		Unchanged: 0/0
  1708 ;; Data sizes:     COMMON   BANK0   BANK1   BANK2
  1709 ;;      Params:         0       0       0       0
  1710 ;;      Locals:         0       0       0       0
  1711 ;;      Temps:          0       0       0       0
  1712 ;;      Totals:         0       0       0       0
  1713 ;;Total ram usage:        0 bytes
  1714 ;; Hardware stack levels used: 1
  1715 ;; Hardware stack levels required when called: 8
  1716 ;; This function calls:
  1717 ;;		_setup_RC2
  1718 ;;		_setup_RC7
  1719 ;;		_setup_engine_managment_ports
  1720 ;;		_setup_timer_hardware
  1721 ;;		_turn_board_on
  1722 ;; This function is called by:
  1723 ;;		_main
  1724 ;; This function uses a non-reentrant model
  1725 ;;
  1726                           
  1727     0AB7                     _global_setup:	
  1728                           ;psect for function _global_setup
  1729                           
  1730     0AB7                     l2952:	
  1731                           ;incstack = 0
  1732 ;; hardware stack exceeded
  1733                           ; Regs used in _global_setup: [wreg+status,2+status,0+pclath+cstack]
  1734                           
  1735                           
  1736                           ;main.c: 37:     INTCONbits.GIE = 1;
  1737     0AB7  178B               	bsf	11,7	;volatile
  1738                           
  1739                           ;main.c: 38:     INTCONbits.PEIE = 1;
  1740     0AB8  170B               	bsf	11,6	;volatile
  1741     0AB9                     l2954:
  1742                           
  1743                           ;main.c: 40:     setup_timer_hardware();
  1744     0AB9  158A  2296  158A   	fcall	_setup_timer_hardware
  1745     0ABC                     l2956:
  1746                           
  1747                           ;main.c: 41:     setup_RC7();
  1748     0ABC  158A  2245  158A   	fcall	_setup_RC7
  1749     0ABF                     l2958:
  1750                           
  1751                           ;main.c: 42:     setup_RC2();
  1752     0ABF  158A  223E  158A   	fcall	_setup_RC2
  1753                           
  1754                           ;main.c: 43:     turn_board_on();
  1755     0AC2  158A  221D  158A   	fcall	_turn_board_on
  1756     0AC5                     l2960:
  1757                           
  1758                           ;main.c: 44:     setup_engine_managment_ports();
  1759     0AC5  158A  224C  158A   	fcall	_setup_engine_managment_ports
  1760     0AC8                     l43:
  1761     0AC8  0008               	return
  1762     0AC9                     __end_of_global_setup:
  1763                           
  1764                           	psect	text6
  1765     0A1D                     __ptext6:	
  1766 ;; *************** function _turn_board_on *****************
  1767 ;; Defined at:
  1768 ;;		line 3 in file "task4/state_change.c"
  1769 ;; Parameters:    Size  Location     Type
  1770 ;;		None
  1771 ;; Auto vars:     Size  Location     Type
  1772 ;;		None
  1773 ;; Return value:  Size  Location     Type
  1774 ;;                  1    wreg      void 
  1775 ;; Registers used:
  1776 ;;		wreg, status,2, status,0, pclath, cstack
  1777 ;; Tracked objects:
  1778 ;;		On entry : 0/0
  1779 ;;		On exit  : 0/0
  1780 ;;		Unchanged: 0/0
  1781 ;; Data sizes:     COMMON   BANK0   BANK1   BANK2
  1782 ;;      Params:         0       0       0       0
  1783 ;;      Locals:         0       0       0       0
  1784 ;;      Temps:          0       0       0       0
  1785 ;;      Totals:         0       0       0       0
  1786 ;;Total ram usage:        0 bytes
  1787 ;; Hardware stack levels used: 1
  1788 ;; Hardware stack levels required when called: 7
  1789 ;; This function calls:
  1790 ;;		_set_full_pwr
  1791 ;; This function is called by:
  1792 ;;		_global_setup
  1793 ;; This function uses a non-reentrant model
  1794 ;;
  1795                           
  1796     0A1D                     _turn_board_on:	
  1797                           ;psect for function _turn_board_on
  1798                           
  1799     0A1D                     l2942:	
  1800                           ;incstack = 0
  1801 ;; hardware stack exceeded
  1802                           ; Regs used in _turn_board_on: [wreg+status,2+status,0+pclath+cstack]
  1803                           
  1804                           
  1805                           ;task4/state_change.c: 4:     set_full_pwr();
  1806     0A1D  158A  2253  158A   	fcall	_set_full_pwr
  1807     0A20                     l167:
  1808     0A20  0008               	return
  1809     0A21                     __end_of_turn_board_on:
  1810                           
  1811                           	psect	text7
  1812     0A53                     __ptext7:	
  1813 ;; *************** function _set_full_pwr *****************
  1814 ;; Defined at:
  1815 ;;		line 17 in file "task3/adjust_power.c"
  1816 ;; Parameters:    Size  Location     Type
  1817 ;;		None
  1818 ;; Auto vars:     Size  Location     Type
  1819 ;;		None
  1820 ;; Return value:  Size  Location     Type
  1821 ;;                  1    wreg      void 
  1822 ;; Registers used:
  1823 ;;		wreg
  1824 ;; Tracked objects:
  1825 ;;		On entry : 0/0
  1826 ;;		On exit  : 0/0
  1827 ;;		Unchanged: 0/0
  1828 ;; Data sizes:     COMMON   BANK0   BANK1   BANK2
  1829 ;;      Params:         0       0       0       0
  1830 ;;      Locals:         0       0       0       0
  1831 ;;      Temps:          0       0       0       0
  1832 ;;      Totals:         0       0       0       0
  1833 ;;Total ram usage:        0 bytes
  1834 ;; Hardware stack levels used: 1
  1835 ;; Hardware stack levels required when called: 6
  1836 ;; This function calls:
  1837 ;;		Nothing
  1838 ;; This function is called by:
  1839 ;;		_turn_board_on
  1840 ;; This function uses a non-reentrant model
  1841 ;;
  1842                           
  1843     0A53                     _set_full_pwr:	
  1844                           ;psect for function _set_full_pwr
  1845                           
  1846     0A53                     l2916:	
  1847                           ;incstack = 0
  1848 ;; hardware stack exceeded
  1849                           ; Regs used in _set_full_pwr: [wreg]
  1850                           
  1851                           
  1852                           ;task3/adjust_power.c: 19:     power_lvl = 1;
  1853     0A53  3001               	movlw	1
  1854     0A54  1683               	bsf	3,5	;RP0=1, select bank1
  1855     0A55  1303               	bcf	3,6	;RP1=0, select bank1
  1856     0A56  00D5               	movwf	_power_lvl^(0+128)	;volatile
  1857     0A57  3000               	movlw	0
  1858     0A58  00D6               	movwf	(_power_lvl^(0+128)+1)	;volatile
  1859     0A59                     l153:
  1860     0A59  0008               	return
  1861     0A5A                     __end_of_set_full_pwr:
  1862                           
  1863                           	psect	text8
  1864     0A96                     __ptext8:	
  1865 ;; *************** function _setup_timer_hardware *****************
  1866 ;; Defined at:
  1867 ;;		line 16 in file "general.c"
  1868 ;; Parameters:    Size  Location     Type
  1869 ;;		None
  1870 ;; Auto vars:     Size  Location     Type
  1871 ;;		None
  1872 ;; Return value:  Size  Location     Type
  1873 ;;                  1    wreg      void 
  1874 ;; Registers used:
  1875 ;;		wreg, status,2, status,0
  1876 ;; Tracked objects:
  1877 ;;		On entry : 0/0
  1878 ;;		On exit  : 0/0
  1879 ;;		Unchanged: 0/0
  1880 ;; Data sizes:     COMMON   BANK0   BANK1   BANK2
  1881 ;;      Params:         0       0       0       0
  1882 ;;      Locals:         0       0       0       0
  1883 ;;      Temps:          0       0       0       0
  1884 ;;      Totals:         0       0       0       0
  1885 ;;Total ram usage:        0 bytes
  1886 ;; Hardware stack levels used: 1
  1887 ;; Hardware stack levels required when called: 6
  1888 ;; This function calls:
  1889 ;;		Nothing
  1890 ;; This function is called by:
  1891 ;;		_global_setup
  1892 ;; This function uses a non-reentrant model
  1893 ;;
  1894                           
  1895     0A96                     _setup_timer_hardware:	
  1896                           ;psect for function _setup_timer_hardware
  1897                           
  1898     0A96                     l2924:	
  1899                           ;incstack = 0
  1900                           ; Regs used in _setup_timer_hardware: [wreg+status,2+status,0]
  1901                           
  1902                           
  1903                           ;general.c: 17:     TMR1IF = 0;
  1904     0A96  1283               	bcf	3,5	;RP0=0, select bank0
  1905     0A97  1303               	bcf	3,6	;RP1=0, select bank0
  1906     0A98  100C               	bcf	12,0	;volatile
  1907     0A99                     l2926:
  1908                           
  1909                           ;general.c: 18:     TMR1H = 0;
  1910     0A99  018F               	clrf	15	;volatile
  1911                           
  1912                           ;general.c: 19:     TMR1L = 0;
  1913     0A9A  018E               	clrf	14	;volatile
  1914     0A9B                     l2928:
  1915                           
  1916                           ;general.c: 20:     PIR1bits.TMR1IF = 0;
  1917     0A9B  100C               	bcf	12,0	;volatile
  1918     0A9C                     l2930:
  1919                           
  1920                           ;general.c: 21:     PIE1bits.TMR2IE = 1;
  1921     0A9C  1683               	bsf	3,5	;RP0=1, select bank1
  1922     0A9D  1303               	bcf	3,6	;RP1=0, select bank1
  1923     0A9E  148C               	bsf	12,1	;volatile
  1924     0A9F                     l2932:
  1925                           
  1926                           ;general.c: 22:     PIE1bits.TMR1IE = 1;
  1927     0A9F  140C               	bsf	12,0	;volatile
  1928     0AA0                     l2934:
  1929                           
  1930                           ;general.c: 23:     T1CONbits.TMR1CS = 0;
  1931     0AA0  1283               	bcf	3,5	;RP0=0, select bank0
  1932     0AA1  1303               	bcf	3,6	;RP1=0, select bank0
  1933     0AA2  1090               	bcf	16,1	;volatile
  1934     0AA3                     l2936:
  1935                           
  1936                           ;general.c: 24:     T1CONbits.T1CKPS = 0b00;
  1937     0AA3  30CF               	movlw	-49
  1938     0AA4  0590               	andwf	16,f	;volatile
  1939     0AA5                     l255:
  1940     0AA5  0008               	return
  1941     0AA6                     __end_of_setup_timer_hardware:
  1942                           
  1943                           	psect	text9
  1944     0A4C                     __ptext9:	
  1945 ;; *************** function _setup_engine_managment_ports *****************
  1946 ;; Defined at:
  1947 ;;		line 22 in file "task6/engine_manage.c"
  1948 ;; Parameters:    Size  Location     Type
  1949 ;;		None
  1950 ;; Auto vars:     Size  Location     Type
  1951 ;;		None
  1952 ;; Return value:  Size  Location     Type
  1953 ;;                  1    wreg      void 
  1954 ;; Registers used:
  1955 ;;		status,2, status,0, pclath, cstack
  1956 ;; Tracked objects:
  1957 ;;		On entry : 0/0
  1958 ;;		On exit  : 0/0
  1959 ;;		Unchanged: 0/0
  1960 ;; Data sizes:     COMMON   BANK0   BANK1   BANK2
  1961 ;;      Params:         0       0       0       0
  1962 ;;      Locals:         0       0       0       0
  1963 ;;      Temps:          0       0       0       0
  1964 ;;      Totals:         0       0       0       0
  1965 ;;Total ram usage:        0 bytes
  1966 ;; Hardware stack levels used: 1
  1967 ;; Hardware stack levels required when called: 7
  1968 ;; This function calls:
  1969 ;;		_setup_RA1
  1970 ;;		_setup_RA2
  1971 ;; This function is called by:
  1972 ;;		_global_setup
  1973 ;; This function uses a non-reentrant model
  1974 ;;
  1975                           
  1976     0A4C                     _setup_engine_managment_ports:	
  1977                           ;psect for function _setup_engine_managment_ports
  1978                           
  1979     0A4C                     l2944:	
  1980                           ;incstack = 0
  1981 ;; hardware stack exceeded
  1982                           ; Regs used in _setup_engine_managment_ports: [status,2+status,0+pclath+cstack]
  1983                           
  1984                           
  1985                           ;task6/engine_manage.c: 23:     setup_RA1();
  1986     0A4C  158A  225A  158A   	fcall	_setup_RA1
  1987                           
  1988                           ;task6/engine_manage.c: 24:     setup_RA2();
  1989     0A4F  158A  2263  158A   	fcall	_setup_RA2
  1990     0A52                     l213:
  1991     0A52  0008               	return
  1992     0A53                     __end_of_setup_engine_managment_ports:
  1993                           
  1994                           	psect	text10
  1995     0A63                     __ptext10:	
  1996 ;; *************** function _setup_RA2 *****************
  1997 ;; Defined at:
  1998 ;;		line 15 in file "task6/engine_manage.c"
  1999 ;; Parameters:    Size  Location     Type
  2000 ;;		None
  2001 ;; Auto vars:     Size  Location     Type
  2002 ;;		None
  2003 ;; Return value:  Size  Location     Type
  2004 ;;                  1    wreg      void 
  2005 ;; Registers used:
  2006 ;;		None
  2007 ;; Tracked objects:
  2008 ;;		On entry : 0/0
  2009 ;;		On exit  : 0/0
  2010 ;;		Unchanged: 0/0
  2011 ;; Data sizes:     COMMON   BANK0   BANK1   BANK2
  2012 ;;      Params:         0       0       0       0
  2013 ;;      Locals:         0       0       0       0
  2014 ;;      Temps:          0       0       0       0
  2015 ;;      Totals:         0       0       0       0
  2016 ;;Total ram usage:        0 bytes
  2017 ;; Hardware stack levels used: 1
  2018 ;; Hardware stack levels required when called: 6
  2019 ;; This function calls:
  2020 ;;		Nothing
  2021 ;; This function is called by:
  2022 ;;		_setup_engine_managment_ports
  2023 ;; This function uses a non-reentrant model
  2024 ;;
  2025                           
  2026     0A63                     _setup_RA2:	
  2027                           ;psect for function _setup_RA2
  2028                           
  2029     0A63                     l2920:	
  2030                           ;incstack = 0
  2031 ;; hardware stack exceeded
  2032                           ; Regs used in _setup_RA2: []
  2033                           
  2034                           
  2035                           ;task6/engine_manage.c: 16:     ANSELbits.ANS2 = 0;
  2036     0A63  1283               	bcf	3,5	;RP0=0, select bank2
  2037     0A64  1703               	bsf	3,6	;RP1=1, select bank2
  2038     0A65  111E               	bcf	30,2	;volatile
  2039                           
  2040                           ;task6/engine_manage.c: 17:     TRISAbits.TRISA2 = 0;
  2041     0A66  1683               	bsf	3,5	;RP0=1, select bank1
  2042     0A67  1303               	bcf	3,6	;RP1=0, select bank1
  2043     0A68  1105               	bcf	5,2	;volatile
  2044                           
  2045                           ;task6/engine_manage.c: 18:     WPUAbits.WPU2 = 0;
  2046     0A69  1115               	bcf	21,2	;volatile
  2047                           
  2048                           ;task6/engine_manage.c: 19:     IOCAbits.IOC2 = 0;
  2049     0A6A  1116               	bcf	22,2	;volatile
  2050     0A6B                     l210:
  2051     0A6B  0008               	return
  2052     0A6C                     __end_of_setup_RA2:
  2053                           
  2054                           	psect	text11
  2055     0A5A                     __ptext11:	
  2056 ;; *************** function _setup_RA1 *****************
  2057 ;; Defined at:
  2058 ;;		line 8 in file "task6/engine_manage.c"
  2059 ;; Parameters:    Size  Location     Type
  2060 ;;		None
  2061 ;; Auto vars:     Size  Location     Type
  2062 ;;		None
  2063 ;; Return value:  Size  Location     Type
  2064 ;;                  1    wreg      void 
  2065 ;; Registers used:
  2066 ;;		None
  2067 ;; Tracked objects:
  2068 ;;		On entry : 0/0
  2069 ;;		On exit  : 0/0
  2070 ;;		Unchanged: 0/0
  2071 ;; Data sizes:     COMMON   BANK0   BANK1   BANK2
  2072 ;;      Params:         0       0       0       0
  2073 ;;      Locals:         0       0       0       0
  2074 ;;      Temps:          0       0       0       0
  2075 ;;      Totals:         0       0       0       0
  2076 ;;Total ram usage:        0 bytes
  2077 ;; Hardware stack levels used: 1
  2078 ;; Hardware stack levels required when called: 6
  2079 ;; This function calls:
  2080 ;;		Nothing
  2081 ;; This function is called by:
  2082 ;;		_setup_engine_managment_ports
  2083 ;; This function uses a non-reentrant model
  2084 ;;
  2085                           
  2086     0A5A                     _setup_RA1:	
  2087                           ;psect for function _setup_RA1
  2088                           
  2089     0A5A                     l2918:	
  2090                           ;incstack = 0
  2091 ;; hardware stack exceeded
  2092                           ; Regs used in _setup_RA1: []
  2093                           
  2094                           
  2095                           ;task6/engine_manage.c: 9:     ANSELbits.ANS1 = 0;
  2096     0A5A  1283               	bcf	3,5	;RP0=0, select bank2
  2097     0A5B  1703               	bsf	3,6	;RP1=1, select bank2
  2098     0A5C  109E               	bcf	30,1	;volatile
  2099                           
  2100                           ;task6/engine_manage.c: 10:     TRISAbits.TRISA1 = 0;
  2101     0A5D  1683               	bsf	3,5	;RP0=1, select bank1
  2102     0A5E  1303               	bcf	3,6	;RP1=0, select bank1
  2103     0A5F  1085               	bcf	5,1	;volatile
  2104                           
  2105                           ;task6/engine_manage.c: 11:     WPUAbits.WPU1 = 0;
  2106     0A60  1095               	bcf	21,1	;volatile
  2107                           
  2108                           ;task6/engine_manage.c: 12:     IOCAbits.IOC1 = 0;
  2109     0A61  1096               	bcf	22,1	;volatile
  2110     0A62                     l207:
  2111     0A62  0008               	return
  2112     0A63                     __end_of_setup_RA1:
  2113                           
  2114                           	psect	text12
  2115     0A45                     __ptext12:	
  2116 ;; *************** function _setup_RC7 *****************
  2117 ;; Defined at:
  2118 ;;		line 7 in file "task3/adjust_power.c"
  2119 ;; Parameters:    Size  Location     Type
  2120 ;;		None
  2121 ;; Auto vars:     Size  Location     Type
  2122 ;;		None
  2123 ;; Return value:  Size  Location     Type
  2124 ;;                  1    wreg      void 
  2125 ;; Registers used:
  2126 ;;		None
  2127 ;; Tracked objects:
  2128 ;;		On entry : 0/0
  2129 ;;		On exit  : 0/0
  2130 ;;		Unchanged: 0/0
  2131 ;; Data sizes:     COMMON   BANK0   BANK1   BANK2
  2132 ;;      Params:         0       0       0       0
  2133 ;;      Locals:         0       0       0       0
  2134 ;;      Temps:          0       0       0       0
  2135 ;;      Totals:         0       0       0       0
  2136 ;;Total ram usage:        0 bytes
  2137 ;; Hardware stack levels used: 1
  2138 ;; Hardware stack levels required when called: 6
  2139 ;; This function calls:
  2140 ;;		Nothing
  2141 ;; This function is called by:
  2142 ;;		_global_setup
  2143 ;; This function uses a non-reentrant model
  2144 ;;
  2145                           
  2146     0A45                     _setup_RC7:	
  2147                           ;psect for function _setup_RC7
  2148                           
  2149     0A45                     l2938:	
  2150                           ;incstack = 0
  2151                           ; Regs used in _setup_RC7: []
  2152                           
  2153                           
  2154                           ;task3/adjust_power.c: 8:     ANSELHbits.ANS9 = 0;
  2155     0A45  1283               	bcf	3,5	;RP0=0, select bank2
  2156     0A46  1703               	bsf	3,6	;RP1=1, select bank2
  2157     0A47  109F               	bcf	31,1	;volatile
  2158                           
  2159                           ;task3/adjust_power.c: 9:     TRISCbits.TRISC7 = 0;
  2160     0A48  1683               	bsf	3,5	;RP0=1, select bank1
  2161     0A49  1303               	bcf	3,6	;RP1=0, select bank1
  2162     0A4A  1387               	bcf	7,7	;volatile
  2163     0A4B                     l147:
  2164     0A4B  0008               	return
  2165     0A4C                     __end_of_setup_RC7:
  2166                           
  2167                           	psect	text13
  2168     0A3E                     __ptext13:	
  2169 ;; *************** function _setup_RC2 *****************
  2170 ;; Defined at:
  2171 ;;		line 6 in file "task5/pwr_btn_control.c"
  2172 ;; Parameters:    Size  Location     Type
  2173 ;;		None
  2174 ;; Auto vars:     Size  Location     Type
  2175 ;;		None
  2176 ;; Return value:  Size  Location     Type
  2177 ;;                  1    wreg      void 
  2178 ;; Registers used:
  2179 ;;		None
  2180 ;; Tracked objects:
  2181 ;;		On entry : 0/0
  2182 ;;		On exit  : 0/0
  2183 ;;		Unchanged: 0/0
  2184 ;; Data sizes:     COMMON   BANK0   BANK1   BANK2
  2185 ;;      Params:         0       0       0       0
  2186 ;;      Locals:         0       0       0       0
  2187 ;;      Temps:          0       0       0       0
  2188 ;;      Totals:         0       0       0       0
  2189 ;;Total ram usage:        0 bytes
  2190 ;; Hardware stack levels used: 1
  2191 ;; Hardware stack levels required when called: 6
  2192 ;; This function calls:
  2193 ;;		Nothing
  2194 ;; This function is called by:
  2195 ;;		_global_setup
  2196 ;; This function uses a non-reentrant model
  2197 ;;
  2198                           
  2199     0A3E                     _setup_RC2:	
  2200                           ;psect for function _setup_RC2
  2201                           
  2202     0A3E                     l2940:	
  2203                           ;incstack = 0
  2204                           ; Regs used in _setup_RC2: []
  2205                           
  2206                           
  2207                           ;task5/pwr_btn_control.c: 7:     ANSELbits.ANS6 = 0;
  2208     0A3E  1283               	bcf	3,5	;RP0=0, select bank2
  2209     0A3F  1703               	bsf	3,6	;RP1=1, select bank2
  2210     0A40  131E               	bcf	30,6	;volatile
  2211                           
  2212                           ;task5/pwr_btn_control.c: 8:     TRISCbits.TRISC2 = 1;
  2213     0A41  1683               	bsf	3,5	;RP0=1, select bank1
  2214     0A42  1303               	bcf	3,6	;RP1=0, select bank1
  2215     0A43  1507               	bsf	7,2	;volatile
  2216     0A44                     l183:
  2217     0A44  0008               	return
  2218     0A45                     __end_of_setup_RC2:
  2219                           
  2220                           	psect	text14
  2221     0CBA                     __ptext14:	
  2222 ;; *************** function _isr *****************
  2223 ;; Defined at:
  2224 ;;		line 18 in file "main.c"
  2225 ;; Parameters:    Size  Location     Type
  2226 ;;		None
  2227 ;; Auto vars:     Size  Location     Type
  2228 ;;  timer_num       2   35[BANK1 ] int 
  2229 ;; Return value:  Size  Location     Type
  2230 ;;                  1    wreg      void 
  2231 ;; Registers used:
  2232 ;;		wreg, status,2, status,0, btemp+1, pclath, cstack
  2233 ;; Tracked objects:
  2234 ;;		On entry : 0/0
  2235 ;;		On exit  : 0/0
  2236 ;;		Unchanged: 0/0
  2237 ;; Data sizes:     COMMON   BANK0   BANK1   BANK2
  2238 ;;      Params:         0       0       0       0
  2239 ;;      Locals:         0       0       2       0
  2240 ;;      Temps:          0       0       3       0
  2241 ;;      Totals:         0       0       5       0
  2242 ;;Total ram usage:        5 bytes
  2243 ;; Hardware stack levels used: 1
  2244 ;; Hardware stack levels required when called: 5
  2245 ;; This function calls:
  2246 ;;		_board_pwr_pulse
  2247 ;;		_interrupt_caused_by_timer
  2248 ;;		_is_adc_conversion_done
  2249 ;;		_is_crossing_zero_point
  2250 ;;		_reset_adc_interrupt
  2251 ;;		_set_state_according_to_pwr_btn
  2252 ;;		_stop_timer
  2253 ;;		_supply_engine_power
  2254 ;;		i1_start_adc_conversion
  2255 ;; This function is called by:
  2256 ;;		Interrupt level 1
  2257 ;; This function uses a non-reentrant model
  2258 ;;
  2259                           
  2260     0CBA                     _isr:	
  2261                           ;psect for function _isr
  2262                           
  2263     0CBA                     i1l2804:
  2264                           
  2265                           ;main.c: 19:     int timer_num = interrupt_caused_by_timer();
  2266     0CBA  158A  23DD  158A   	fcall	_interrupt_caused_by_timer
  2267     0CBD  0871               	movf	?_interrupt_caused_by_timer+1,w
  2268     0CBE  1683               	bsf	3,5	;RP0=1, select bank1
  2269     0CBF  1303               	bcf	3,6	;RP1=0, select bank1
  2270     0CC0  00C4               	movwf	(isr@timer_num+1)^(0+128)
  2271     0CC1  0870               	movf	?_interrupt_caused_by_timer,w
  2272     0CC2  00C3               	movwf	isr@timer_num^(0+128)
  2273     0CC3                     i1l2806:
  2274                           
  2275                           ;main.c: 20:     if (timer_num) {
  2276     0CC3  0843               	movf	isr@timer_num^(0+128),w
  2277     0CC4  0444               	iorwf	(isr@timer_num+1)^(0+128),w
  2278     0CC5  1903               	btfsc	3,2
  2279     0CC6  2CC8               	goto	u367_21
  2280     0CC7  2CC9               	goto	u367_20
  2281     0CC8                     u367_21:
  2282     0CC8  2CD0               	goto	i1l37
  2283     0CC9                     u367_20:
  2284     0CC9                     i1l2808:
  2285                           
  2286                           ;main.c: 21:         stop_timer(timer_num);
  2287     0CC9  0844               	movf	(isr@timer_num+1)^(0+128),w
  2288     0CCA  00F1               	movwf	stop_timer@timer_num+1
  2289     0CCB  0843               	movf	isr@timer_num^(0+128),w
  2290     0CCC  00F0               	movwf	stop_timer@timer_num
  2291     0CCD  158A  230D  158A   	fcall	_stop_timer
  2292     0CD0                     i1l37:	
  2293                           ;main.c: 22:     }
  2294                           
  2295                           
  2296                           ;main.c: 24:     if (is_adc_conversion_done()) {
  2297     0CD0  158A  22C9  158A   	fcall	_is_adc_conversion_done
  2298     0CD3  0870               	movf	?_is_adc_conversion_done,w
  2299     0CD4  0471               	iorwf	?_is_adc_conversion_done+1,w
  2300     0CD5  1903               	btfsc	3,2
  2301     0CD6  2CD8               	goto	u368_21
  2302     0CD7  2CD9               	goto	u368_20
  2303     0CD8                     u368_21:
  2304     0CD8  2CF3               	goto	i1l40
  2305     0CD9                     u368_20:
  2306     0CD9                     i1l2810:
  2307                           
  2308                           ;main.c: 25:         reset_adc_interrupt();
  2309     0CD9  158A  2229  158A   	fcall	_reset_adc_interrupt
  2310     0CDC                     i1l2812:
  2311                           
  2312                           ;main.c: 26:         if (is_crossing_zero_point()) {
  2313     0CDC  158A  236D  158A   	fcall	_is_crossing_zero_point
  2314     0CDF  1283               	bcf	3,5	;RP0=0, select bank0
  2315     0CE0  1303               	bcf	3,6	;RP1=0, select bank0
  2316     0CE1  0844               	movf	?_is_crossing_zero_point,w
  2317     0CE2  0445               	iorwf	?_is_crossing_zero_point+1,w
  2318     0CE3  1903               	btfsc	3,2
  2319     0CE4  2CE6               	goto	u369_21
  2320     0CE5  2CE7               	goto	u369_20
  2321     0CE6                     u369_21:
  2322     0CE6  2CF0               	goto	i1l2820
  2323     0CE7                     u369_20:
  2324     0CE7                     i1l2814:
  2325                           
  2326                           ;main.c: 27:             set_state_according_to_pwr_btn();
  2327     0CE7  158A  22A6  158A   	fcall	_set_state_according_to_pwr_btn
  2328     0CEA                     i1l2816:
  2329                           
  2330                           ;main.c: 28:             board_pwr_pulse();
  2331     0CEA  158A  22F3  158A   	fcall	_board_pwr_pulse
  2332     0CED                     i1l2818:
  2333                           
  2334                           ;main.c: 29:             supply_engine_power();
  2335     0CED  158A  232C  158A   	fcall	_supply_engine_power
  2336     0CF0                     i1l2820:
  2337                           
  2338                           ;main.c: 32:         start_adc_conversion();
  2339     0CF0  158A  2219  158A   	fcall	i1_start_adc_conversion
  2340     0CF3                     i1l40:
  2341     0CF3  1683               	bsf	3,5	;RP0=1, select bank1
  2342     0CF4  1303               	bcf	3,6	;RP1=0, select bank1
  2343     0CF5  0842               	movf	(??_isr+2)^(0+128),w
  2344     0CF6  00FF               	movwf	btemp+1
  2345     0CF7  0841               	movf	(??_isr+1)^(0+128),w
  2346     0CF8  008A               	movwf	10
  2347     0CF9  0E40               	swapf	??_isr^(0+128),w
  2348     0CFA  0083               	movwf	3
  2349     0CFB  0EFE               	swapf	btemp,f
  2350     0CFC  0E7E               	swapf	btemp,w
  2351     0CFD  0009               	retfie
  2352     0CFE                     __end_of_isr:
  2353                           
  2354                           	psect	intentry
  2355     0004                     __pintentry:	
  2356                           ;incstack = 0
  2357 ;; hardware stack exceeded
  2358                           ; Regs used in _isr: [wreg+status,2+status,0+btemp+1+pclath+cstack]
  2359                           
  2360     0004                     interrupt_function:
  2361     007E                     saved_w	set	btemp
  2362     0004  00FE               	movwf	btemp
  2363     0005  0E03               	swapf	3,w
  2364     0006  1683               	bsf	3,5	;RP0=1, select bank1
  2365     0007  1303               	bcf	3,6	;RP1=0, select bank1
  2366     0008  00C0               	movwf	??_isr^(0+128)
  2367     0009  080A               	movf	10,w
  2368     000A  00C1               	movwf	(??_isr+1)^(0+128)
  2369     000B  087F               	movf	btemp+1,w
  2370     000C  00C2               	movwf	(??_isr+2)^(0+128)
  2371     000D  158A  2CBA         	ljmp	_isr
  2372                           
  2373                           	psect	text15
  2374     0A19                     __ptext15:	
  2375 ;; *************** function i1_start_adc_conversion *****************
  2376 ;; Defined at:
  2377 ;;		line 22 in file "task2/zero_crossing.c"
  2378 ;; Parameters:    Size  Location     Type
  2379 ;;		None
  2380 ;; Auto vars:     Size  Location     Type
  2381 ;;		None
  2382 ;; Return value:  Size  Location     Type
  2383 ;;                  1    wreg      void 
  2384 ;; Registers used:
  2385 ;;		None
  2386 ;; Tracked objects:
  2387 ;;		On entry : 0/0
  2388 ;;		On exit  : 0/0
  2389 ;;		Unchanged: 0/0
  2390 ;; Data sizes:     COMMON   BANK0   BANK1   BANK2
  2391 ;;      Params:         0       0       0       0
  2392 ;;      Locals:         0       0       0       0
  2393 ;;      Temps:          0       0       0       0
  2394 ;;      Totals:         0       0       0       0
  2395 ;;Total ram usage:        0 bytes
  2396 ;; Hardware stack levels used: 1
  2397 ;; This function calls:
  2398 ;;		Nothing
  2399 ;; This function is called by:
  2400 ;;		_isr
  2401 ;; This function uses a non-reentrant model
  2402 ;;
  2403                           
  2404     0A19                     i1_start_adc_conversion:	
  2405                           ;psect for function i1_start_adc_conversion
  2406                           
  2407     0A19                     i1l2802:	
  2408                           ;incstack = 0
  2409                           ; Regs used in i1_start_adc_conversion: []
  2410                           
  2411                           
  2412                           ;task2/zero_crossing.c: 23:     ADCON0bits.GO_nDONE = 1;
  2413     0A19  1283               	bcf	3,5	;RP0=0, select bank0
  2414     0A1A  1303               	bcf	3,6	;RP1=0, select bank0
  2415     0A1B  149F               	bsf	31,1	;volatile
  2416     0A1C                     i1l117:
  2417     0A1C  0008               	return
  2418     0A1D                     __end_ofi1_start_adc_conversion:
  2419                           
  2420                           	psect	text16
  2421     0B2C                     __ptext16:	
  2422 ;; *************** function _supply_engine_power *****************
  2423 ;; Defined at:
  2424 ;;		line 41 in file "task6/engine_manage.c"
  2425 ;; Parameters:    Size  Location     Type
  2426 ;;		None
  2427 ;; Auto vars:     Size  Location     Type
  2428 ;;		None
  2429 ;; Return value:  Size  Location     Type
  2430 ;;                  1    wreg      void 
  2431 ;; Registers used:
  2432 ;;		wreg, status,2, status,0, btemp+1, pclath, cstack
  2433 ;; Tracked objects:
  2434 ;;		On entry : 0/0
  2435 ;;		On exit  : 0/0
  2436 ;;		Unchanged: 0/0
  2437 ;; Data sizes:     COMMON   BANK0   BANK1   BANK2
  2438 ;;      Params:         0       0       0       0
  2439 ;;      Locals:         0       0       0       0
  2440 ;;      Temps:          0       0       0       0
  2441 ;;      Totals:         0       0       0       0
  2442 ;;Total ram usage:        0 bytes
  2443 ;; Hardware stack levels used: 1
  2444 ;; Hardware stack levels required when called: 2
  2445 ;; This function calls:
  2446 ;;		_send_pulse
  2447 ;; This function is called by:
  2448 ;;		_isr
  2449 ;; This function uses a non-reentrant model
  2450 ;;
  2451                           
  2452     0B2C                     _supply_engine_power:	
  2453                           ;psect for function _supply_engine_power
  2454                           
  2455     0B2C                     i1l2734:	
  2456                           ;incstack = 0
  2457                           ; Regs used in _supply_engine_power: [wreg+status,2+status,0+btemp+1+pclath+cstack]
  2458                           
  2459                           
  2460                           ;task6/engine_manage.c: 42:     if (current_lvl == 0) {
  2461     0B2C  1683               	bsf	3,5	;RP0=1, select bank1
  2462     0B2D  1303               	bcf	3,6	;RP1=0, select bank1
  2463     0B2E  0859               	movf	_current_lvl^(0+128),w	;volatile
  2464     0B2F  045A               	iorwf	(_current_lvl+1)^(0+128),w	;volatile
  2465     0B30  1D03               	btfss	3,2
  2466     0B31  2B33               	goto	u365_21
  2467     0B32  2B34               	goto	u365_20
  2468     0B33                     u365_21:
  2469     0B33  2B35               	goto	i1l2738
  2470     0B34                     u365_20:
  2471     0B34  2B4A               	goto	i1l220
  2472     0B35                     i1l2738:
  2473                           
  2474                           ;task6/engine_manage.c: 46:     send_pulse();
  2475     0B35  158A  2405  158A   	fcall	_send_pulse
  2476     0B38                     i1l2740:
  2477                           
  2478                           ;task6/engine_manage.c: 47:     if (current_lvl > desired_lvl) {
  2479     0B38  1683               	bsf	3,5	;RP0=1, select bank1
  2480     0B39  1303               	bcf	3,6	;RP1=0, select bank1
  2481     0B3A  085A               	movf	(_current_lvl+1)^(0+128),w	;volatile
  2482     0B3B  0258               	subwf	(_desired_lvl+1)^(0+128),w	;volatile
  2483     0B3C  1D03               	skipz
  2484     0B3D  2B40               	goto	u366_25
  2485     0B3E  0859               	movf	_current_lvl^(0+128),w	;volatile
  2486     0B3F  0257               	subwf	_desired_lvl^(0+128),w	;volatile
  2487     0B40                     u366_25:
  2488     0B40  1803               	skipnc
  2489     0B41  2B43               	goto	u366_21
  2490     0B42  2B44               	goto	u366_20
  2491     0B43                     u366_21:
  2492     0B43  2B4A               	goto	i1l220
  2493     0B44                     u366_20:
  2494     0B44                     i1l2742:
  2495                           
  2496                           ;task6/engine_manage.c: 48:         --current_lvl;
  2497     0B44  3001               	movlw	1
  2498     0B45  02D9               	subwf	_current_lvl^(0+128),f	;volatile
  2499     0B46  3000               	movlw	0
  2500     0B47  1C03               	skipc
  2501     0B48  03DA               	decf	(_current_lvl+1)^(0+128),f	;volatile
  2502     0B49  02DA               	subwf	(_current_lvl+1)^(0+128),f	;volatile
  2503     0B4A                     i1l220:
  2504     0B4A  0008               	return
  2505     0B4B                     __end_of_supply_engine_power:
  2506                           
  2507                           	psect	text17
  2508     0C05                     __ptext17:	
  2509 ;; *************** function _send_pulse *****************
  2510 ;; Defined at:
  2511 ;;		line 27 in file "task6/engine_manage.c"
  2512 ;; Parameters:    Size  Location     Type
  2513 ;;		None
  2514 ;; Auto vars:     Size  Location     Type
  2515 ;;  pulse_shift_    4    0        unsigned long 
  2516 ;;  pulse_shift     4    0        float 
  2517 ;; Return value:  Size  Location     Type
  2518 ;;                  1    wreg      void 
  2519 ;; Registers used:
  2520 ;;		wreg, status,2, status,0, btemp+1, pclath, cstack
  2521 ;; Tracked objects:
  2522 ;;		On entry : 0/0
  2523 ;;		On exit  : 0/0
  2524 ;;		Unchanged: 0/0
  2525 ;; Data sizes:     COMMON   BANK0   BANK1   BANK2
  2526 ;;      Params:         0       0       0       0
  2527 ;;      Locals:         0       0       0       0
  2528 ;;      Temps:          0       6       0       0
  2529 ;;      Totals:         0       6       0       0
  2530 ;;Total ram usage:        6 bytes
  2531 ;; Hardware stack levels used: 1
  2532 ;; Hardware stack levels required when called: 1
  2533 ;; This function calls:
  2534 ;;		___lwdiv
  2535 ;;		___xxtofl
  2536 ;; This function is called by:
  2537 ;;		_supply_engine_power
  2538 ;; This function uses a non-reentrant model
  2539 ;;
  2540                           
  2541     0C05                     _send_pulse:	
  2542                           ;psect for function _send_pulse
  2543                           
  2544     0C05                     i1l2640:	
  2545                           ;incstack = 0
  2546                           ; Regs used in _send_pulse: [wreg+status,2+status,0+btemp+1+pclath+cstack]
  2547                           
  2548     0C05  1683               	bsf	3,5	;RP0=1, select bank1
  2549     0C06  1303               	bcf	3,6	;RP1=0, select bank1
  2550     0C07  085A               	movf	(_current_lvl+1)^(0+128),w	;volatile
  2551     0C08  00F3               	movwf	___lwdiv@dividend+1
  2552     0C09  0859               	movf	_current_lvl^(0+128),w	;volatile
  2553     0C0A  00F2               	movwf	___lwdiv@dividend
  2554     0C0B  3032               	movlw	50
  2555     0C0C  00F0               	movwf	___lwdiv@divisor
  2556     0C0D  3000               	movlw	0
  2557     0C0E  00F1               	movwf	___lwdiv@divisor+1
  2558     0C0F  158A  2476  158A   	fcall	___lwdiv
  2559     0C12  0870               	movf	?___lwdiv,w
  2560     0C13  1283               	bcf	3,5	;RP0=0, select bank0
  2561     0C14  1303               	bcf	3,6	;RP1=0, select bank0
  2562     0C15  00AE               	movwf	??_send_pulse
  2563     0C16  0871               	movf	?___lwdiv+1,w
  2564     0C17  00AF               	movwf	??_send_pulse+1
  2565     0C18  1003               	clrc
  2566     0C19  0CAF               	rrf	??_send_pulse+1,f
  2567     0C1A  0CAE               	rrf	??_send_pulse,f
  2568     0C1B  082E               	movf	??_send_pulse,w
  2569     0C1C  00B0               	movwf	??_send_pulse+2
  2570     0C1D  082F               	movf	??_send_pulse+1,w
  2571     0C1E  00B1               	movwf	??_send_pulse+3
  2572     0C1F  01B2               	clrf	??_send_pulse+4
  2573     0C20  01B3               	clrf	??_send_pulse+5
  2574     0C21  0833               	movf	??_send_pulse+5,w
  2575     0C22  00A3               	movwf	___xxtofl@val+3
  2576     0C23  0832               	movf	??_send_pulse+4,w
  2577     0C24  00A2               	movwf	___xxtofl@val+2
  2578     0C25  0831               	movf	??_send_pulse+3,w
  2579     0C26  00A1               	movwf	___xxtofl@val+1
  2580     0C27  0830               	movf	??_send_pulse+2,w
  2581     0C28  00A0               	movwf	___xxtofl@val
  2582     0C29  3000               	movlw	0
  2583     0C2A  158A  264F  158A   	fcall	___xxtofl
  2584     0C2D                     i1l2642:
  2585     0C2D                     i1l2644:
  2586                           
  2587                           ;task6/engine_manage.c: 33:     PORTAbits.RA1 = 1;
  2588     0C2D  1283               	bcf	3,5	;RP0=0, select bank0
  2589     0C2E  1303               	bcf	3,6	;RP1=0, select bank0
  2590     0C2F  1485               	bsf	5,1	;volatile
  2591     0C30                     i1l2646:
  2592                           
  2593                           ;task6/engine_manage.c: 34:     PORTAbits.RA2 = 1;
  2594     0C30  1505               	bsf	5,2	;volatile
  2595     0C31                     i1l2648:
  2596                           
  2597                           ;task6/engine_manage.c: 37:     PORTAbits.RA1 = 0;
  2598     0C31  1085               	bcf	5,1	;volatile
  2599     0C32                     i1l2650:
  2600                           
  2601                           ;task6/engine_manage.c: 38:     PORTAbits.RA2 = 0;
  2602     0C32  1105               	bcf	5,2	;volatile
  2603     0C33                     i1l216:
  2604     0C33  0008               	return
  2605     0C34                     __end_of_send_pulse:
  2606                           
  2607                           	psect	text18
  2608     0C76                     __ptext18:	
  2609 ;; *************** function ___lwdiv *****************
  2610 ;; Defined at:
  2611 ;;		line 5 in file "C:\Program Files\Microchip\xc8\v2.45\pic\sources\c99\common\lwdiv.c"
  2612 ;; Parameters:    Size  Location     Type
  2613 ;;  divisor         2    0[COMMON] unsigned int 
  2614 ;;  dividend        2    2[COMMON] unsigned int 
  2615 ;; Auto vars:     Size  Location     Type
  2616 ;;  quotient        2    4[COMMON] unsigned int 
  2617 ;;  counter         1    6[COMMON] unsigned char 
  2618 ;; Return value:  Size  Location     Type
  2619 ;;                  2    0[COMMON] unsigned int 
  2620 ;; Registers used:
  2621 ;;		wreg, status,2, status,0, btemp+1
  2622 ;; Tracked objects:
  2623 ;;		On entry : 0/0
  2624 ;;		On exit  : 0/0
  2625 ;;		Unchanged: 0/0
  2626 ;; Data sizes:     COMMON   BANK0   BANK1   BANK2
  2627 ;;      Params:         4       0       0       0
  2628 ;;      Locals:         3       0       0       0
  2629 ;;      Temps:          0       0       0       0
  2630 ;;      Totals:         7       0       0       0
  2631 ;;Total ram usage:        7 bytes
  2632 ;; Hardware stack levels used: 1
  2633 ;; This function calls:
  2634 ;;		Nothing
  2635 ;; This function is called by:
  2636 ;;		_send_pulse
  2637 ;; This function uses a non-reentrant model
  2638 ;;
  2639                           
  2640     0C76                     ___lwdiv:	
  2641                           ;psect for function ___lwdiv
  2642                           
  2643     0C76                     i1l2502:	
  2644                           ;incstack = 0
  2645                           ; Regs used in ___lwdiv: [wreg+status,2+status,0+btemp+1]
  2646                           
  2647     0C76  01F4               	clrf	___lwdiv@quotient
  2648     0C77  01F5               	clrf	___lwdiv@quotient+1
  2649     0C78                     i1l2504:
  2650     0C78  0870               	movf	___lwdiv@divisor,w
  2651     0C79  0471               	iorwf	___lwdiv@divisor+1,w
  2652     0C7A  1903               	btfsc	3,2
  2653     0C7B  2C7D               	goto	u327_21
  2654     0C7C  2C7E               	goto	u327_20
  2655     0C7D                     u327_21:
  2656     0C7D  2CB5               	goto	i1l2524
  2657     0C7E                     u327_20:
  2658     0C7E                     i1l2506:
  2659     0C7E  01F6               	clrf	___lwdiv@counter
  2660     0C7F  0AF6               	incf	___lwdiv@counter,f
  2661     0C80  2C8C               	goto	i1l2512
  2662     0C81                     i1l2508:
  2663     0C81  3001               	movlw	1
  2664     0C82                     u328_25:
  2665     0C82  1003               	clrc
  2666     0C83  0DF0               	rlf	___lwdiv@divisor,f
  2667     0C84  0DF1               	rlf	___lwdiv@divisor+1,f
  2668     0C85  3EFF               	addlw	-1
  2669     0C86  1D03               	skipz
  2670     0C87  2C82               	goto	u328_25
  2671     0C88                     i1l2510:
  2672     0C88  3001               	movlw	1
  2673     0C89  00FF               	movwf	btemp+1
  2674     0C8A  087F               	movf	btemp+1,w
  2675     0C8B  07F6               	addwf	___lwdiv@counter,f
  2676     0C8C                     i1l2512:
  2677     0C8C  1FF1               	btfss	___lwdiv@divisor+1,7
  2678     0C8D  2C8F               	goto	u329_21
  2679     0C8E  2C90               	goto	u329_20
  2680     0C8F                     u329_21:
  2681     0C8F  2C81               	goto	i1l2508
  2682     0C90                     u329_20:
  2683     0C90                     i1l2514:
  2684     0C90  3001               	movlw	1
  2685     0C91                     u330_25:
  2686     0C91  1003               	clrc
  2687     0C92  0DF4               	rlf	___lwdiv@quotient,f
  2688     0C93  0DF5               	rlf	___lwdiv@quotient+1,f
  2689     0C94  3EFF               	addlw	-1
  2690     0C95  1D03               	skipz
  2691     0C96  2C91               	goto	u330_25
  2692     0C97  0871               	movf	___lwdiv@divisor+1,w
  2693     0C98  0273               	subwf	___lwdiv@dividend+1,w
  2694     0C99  1D03               	skipz
  2695     0C9A  2C9D               	goto	u331_25
  2696     0C9B  0870               	movf	___lwdiv@divisor,w
  2697     0C9C  0272               	subwf	___lwdiv@dividend,w
  2698     0C9D                     u331_25:
  2699     0C9D  1C03               	skipc
  2700     0C9E  2CA0               	goto	u331_21
  2701     0C9F  2CA1               	goto	u331_20
  2702     0CA0                     u331_21:
  2703     0CA0  2CA8               	goto	i1l2520
  2704     0CA1                     u331_20:
  2705     0CA1                     i1l2516:
  2706     0CA1  0870               	movf	___lwdiv@divisor,w
  2707     0CA2  02F2               	subwf	___lwdiv@dividend,f
  2708     0CA3  0871               	movf	___lwdiv@divisor+1,w
  2709     0CA4  1C03               	skipc
  2710     0CA5  03F3               	decf	___lwdiv@dividend+1,f
  2711     0CA6  02F3               	subwf	___lwdiv@dividend+1,f
  2712     0CA7                     i1l2518:
  2713     0CA7  1474               	bsf	___lwdiv@quotient,0
  2714     0CA8                     i1l2520:
  2715     0CA8  3001               	movlw	1
  2716     0CA9                     u332_25:
  2717     0CA9  1003               	clrc
  2718     0CAA  0CF1               	rrf	___lwdiv@divisor+1,f
  2719     0CAB  0CF0               	rrf	___lwdiv@divisor,f
  2720     0CAC  3EFF               	addlw	-1
  2721     0CAD  1D03               	skipz
  2722     0CAE  2CA9               	goto	u332_25
  2723     0CAF                     i1l2522:
  2724     0CAF  3001               	movlw	1
  2725     0CB0  02F6               	subwf	___lwdiv@counter,f
  2726     0CB1  1D03               	btfss	3,2
  2727     0CB2  2CB4               	goto	u333_21
  2728     0CB3  2CB5               	goto	u333_20
  2729     0CB4                     u333_21:
  2730     0CB4  2C90               	goto	i1l2514
  2731     0CB5                     u333_20:
  2732     0CB5                     i1l2524:
  2733     0CB5  0875               	movf	___lwdiv@quotient+1,w
  2734     0CB6  00F1               	movwf	?___lwdiv+1
  2735     0CB7  0874               	movf	___lwdiv@quotient,w
  2736     0CB8  00F0               	movwf	?___lwdiv
  2737     0CB9                     i1l646:
  2738     0CB9  0008               	return
  2739     0CBA                     __end_of___lwdiv:
  2740                           
  2741                           	psect	text19
  2742     0B0D                     __ptext19:	
  2743 ;; *************** function _stop_timer *****************
  2744 ;; Defined at:
  2745 ;;		line 68 in file "general.c"
  2746 ;; Parameters:    Size  Location     Type
  2747 ;;  timer_num       2    0[COMMON] int 
  2748 ;; Auto vars:     Size  Location     Type
  2749 ;;		None
  2750 ;; Return value:  Size  Location     Type
  2751 ;;                  1    wreg      void 
  2752 ;; Registers used:
  2753 ;;		wreg, status,2, status,0
  2754 ;; Tracked objects:
  2755 ;;		On entry : 0/0
  2756 ;;		On exit  : 0/0
  2757 ;;		Unchanged: 0/0
  2758 ;; Data sizes:     COMMON   BANK0   BANK1   BANK2
  2759 ;;      Params:         2       0       0       0
  2760 ;;      Locals:         0       0       0       0
  2761 ;;      Temps:          0       0       0       0
  2762 ;;      Totals:         2       0       0       0
  2763 ;;Total ram usage:        2 bytes
  2764 ;; Hardware stack levels used: 1
  2765 ;; This function calls:
  2766 ;;		Nothing
  2767 ;; This function is called by:
  2768 ;;		_isr
  2769 ;; This function uses a non-reentrant model
  2770 ;;
  2771                           
  2772     0B0D                     _stop_timer:	
  2773                           ;psect for function _stop_timer
  2774                           
  2775     0B0D                     i1l2684:	
  2776                           ;incstack = 0
  2777                           ; Regs used in _stop_timer: [wreg+status,2+status,0]
  2778                           
  2779                           
  2780                           ;general.c: 69:     if (timer_num == 1) {
  2781     0B0D  0370               	decf	stop_timer@timer_num,w
  2782     0B0E  0471               	iorwf	stop_timer@timer_num+1,w
  2783     0B0F  1D03               	btfss	3,2
  2784     0B10  2B12               	goto	u359_21
  2785     0B11  2B13               	goto	u359_20
  2786     0B12                     u359_21:
  2787     0B12  2B1C               	goto	i1l2692
  2788     0B13                     u359_20:
  2789     0B13                     i1l2686:
  2790                           
  2791                           ;general.c: 70:         PIR1bits.TMR1IF = 0;
  2792     0B13  1283               	bcf	3,5	;RP0=0, select bank0
  2793     0B14  1303               	bcf	3,6	;RP1=0, select bank0
  2794     0B15  100C               	bcf	12,0	;volatile
  2795                           
  2796                           ;general.c: 71:         T1CONbits.TMR1ON = 0;
  2797     0B16  1010               	bcf	16,0	;volatile
  2798     0B17                     i1l2688:
  2799                           
  2800                           ;general.c: 72:         timer1_running = 0;
  2801     0B17  1683               	bsf	3,5	;RP0=1, select bank1
  2802     0B18  1303               	bcf	3,6	;RP1=0, select bank1
  2803     0B19  01D3               	clrf	_timer1_running^(0+128)
  2804     0B1A  01D4               	clrf	(_timer1_running+1)^(0+128)
  2805     0B1B  2B2B               	goto	i1l279
  2806     0B1C                     i1l2692:
  2807                           
  2808                           ;general.c: 76:     if (timer_num == 2) {
  2809     0B1C  3002               	movlw	2
  2810     0B1D  0670               	xorwf	stop_timer@timer_num,w
  2811     0B1E  0471               	iorwf	stop_timer@timer_num+1,w
  2812     0B1F  1D03               	btfss	3,2
  2813     0B20  2B22               	goto	u360_21
  2814     0B21  2B23               	goto	u360_20
  2815     0B22                     u360_21:
  2816     0B22  2B2B               	goto	i1l279
  2817     0B23                     u360_20:
  2818     0B23                     i1l2694:
  2819                           
  2820                           ;general.c: 77:         PIR1bits.TMR2IF = 0;
  2821     0B23  1283               	bcf	3,5	;RP0=0, select bank0
  2822     0B24  1303               	bcf	3,6	;RP1=0, select bank0
  2823     0B25  108C               	bcf	12,1	;volatile
  2824                           
  2825                           ;general.c: 78:         T2CONbits.TMR2ON = 0;
  2826     0B26  1112               	bcf	18,2	;volatile
  2827     0B27                     i1l2696:
  2828                           
  2829                           ;general.c: 79:         timer2_running = 0;
  2830     0B27  1683               	bsf	3,5	;RP0=1, select bank1
  2831     0B28  1303               	bcf	3,6	;RP1=0, select bank1
  2832     0B29  01D1               	clrf	_timer2_running^(0+128)
  2833     0B2A  01D2               	clrf	(_timer2_running+1)^(0+128)
  2834     0B2B                     i1l279:
  2835     0B2B  0008               	return
  2836     0B2C                     __end_of_stop_timer:
  2837                           
  2838                           	psect	text20
  2839     0AA6                     __ptext20:	
  2840 ;; *************** function _set_state_according_to_pwr_btn *****************
  2841 ;; Defined at:
  2842 ;;		line 15 in file "task5/pwr_btn_control.c"
  2843 ;; Parameters:    Size  Location     Type
  2844 ;;		None
  2845 ;; Auto vars:     Size  Location     Type
  2846 ;;		None
  2847 ;; Return value:  Size  Location     Type
  2848 ;;                  1    wreg      void 
  2849 ;; Registers used:
  2850 ;;		wreg, status,2, status,0, pclath, cstack
  2851 ;; Tracked objects:
  2852 ;;		On entry : 0/0
  2853 ;;		On exit  : 0/0
  2854 ;;		Unchanged: 0/0
  2855 ;; Data sizes:     COMMON   BANK0   BANK1   BANK2
  2856 ;;      Params:         0       0       0       0
  2857 ;;      Locals:         0       0       0       0
  2858 ;;      Temps:          0       0       0       0
  2859 ;;      Totals:         0       0       0       0
  2860 ;;Total ram usage:        0 bytes
  2861 ;; Hardware stack levels used: 1
  2862 ;; Hardware stack levels required when called: 2
  2863 ;; This function calls:
  2864 ;;		_is_pwr_btn_pressed
  2865 ;;		_turn_board_off
  2866 ;;		i1_turn_board_on
  2867 ;; This function is called by:
  2868 ;;		_isr
  2869 ;; This function uses a non-reentrant model
  2870 ;;
  2871                           
  2872     0AA6                     _set_state_according_to_pwr_btn:	
  2873                           ;psect for function _set_state_according_to_pwr_btn
  2874                           
  2875     0AA6                     i1l2718:	
  2876                           ;incstack = 0
  2877                           ; Regs used in _set_state_according_to_pwr_btn: [wreg+status,2+status,0+pclath+cstack]
  2878                           
  2879                           
  2880                           ;task5/pwr_btn_control.c: 16:     if (is_pwr_btn_pressed()) {
  2881     0AA6  158A  2289  158A   	fcall	_is_pwr_btn_pressed
  2882     0AA9  0870               	movf	?_is_pwr_btn_pressed,w
  2883     0AAA  0471               	iorwf	?_is_pwr_btn_pressed+1,w
  2884     0AAB  1903               	btfsc	3,2
  2885     0AAC  2AAE               	goto	u363_21
  2886     0AAD  2AAF               	goto	u363_20
  2887     0AAE                     u363_21:
  2888     0AAE  2AB3               	goto	i1l2724
  2889     0AAF                     u363_20:
  2890     0AAF                     i1l2720:
  2891                           
  2892                           ;task5/pwr_btn_control.c: 17:         turn_board_on();
  2893     0AAF  158A  2215  158A   	fcall	i1_turn_board_on
  2894     0AB2  2AB6               	goto	i1l190
  2895     0AB3                     i1l2724:
  2896                           
  2897                           ;task5/pwr_btn_control.c: 21:     turn_board_off();
  2898     0AB3  158A  2211  158A   	fcall	_turn_board_off
  2899     0AB6                     i1l190:
  2900     0AB6  0008               	return
  2901     0AB7                     __end_of_set_state_according_to_pwr_btn:
  2902                           
  2903                           	psect	text21
  2904     0A15                     __ptext21:	
  2905 ;; *************** function i1_turn_board_on *****************
  2906 ;; Defined at:
  2907 ;;		line 3 in file "task4/state_change.c"
  2908 ;; Parameters:    Size  Location     Type
  2909 ;;		None
  2910 ;; Auto vars:     Size  Location     Type
  2911 ;;		None
  2912 ;; Return value:  Size  Location     Type
  2913 ;;                  1    wreg      void 
  2914 ;; Registers used:
  2915 ;;		wreg, status,2, status,0, pclath, cstack
  2916 ;; Tracked objects:
  2917 ;;		On entry : 0/0
  2918 ;;		On exit  : 0/0
  2919 ;;		Unchanged: 0/0
  2920 ;; Data sizes:     COMMON   BANK0   BANK1   BANK2
  2921 ;;      Params:         0       0       0       0
  2922 ;;      Locals:         0       0       0       0
  2923 ;;      Temps:          0       0       0       0
  2924 ;;      Totals:         0       0       0       0
  2925 ;;Total ram usage:        0 bytes
  2926 ;; Hardware stack levels used: 1
  2927 ;; Hardware stack levels required when called: 1
  2928 ;; This function calls:
  2929 ;;		i1_set_full_pwr
  2930 ;; This function is called by:
  2931 ;;		_set_state_according_to_pwr_btn
  2932 ;; This function uses a non-reentrant model
  2933 ;;
  2934                           
  2935     0A15                     i1_turn_board_on:	
  2936                           ;psect for function i1_turn_board_on
  2937                           
  2938     0A15                     i1l2664:	
  2939                           ;incstack = 0
  2940                           ; Regs used in i1_turn_board_on: [wreg+status,2+status,0+pclath+cstack]
  2941                           
  2942                           
  2943                           ;task4/state_change.c: 4:     set_full_pwr();
  2944     0A15  158A  2237  158A   	fcall	i1_set_full_pwr
  2945     0A18                     i1l167:
  2946     0A18  0008               	return
  2947     0A19                     __end_ofi1_turn_board_on:
  2948                           
  2949                           	psect	text22
  2950     0A37                     __ptext22:	
  2951 ;; *************** function i1_set_full_pwr *****************
  2952 ;; Defined at:
  2953 ;;		line 17 in file "task3/adjust_power.c"
  2954 ;; Parameters:    Size  Location     Type
  2955 ;;		None
  2956 ;; Auto vars:     Size  Location     Type
  2957 ;;		None
  2958 ;; Return value:  Size  Location     Type
  2959 ;;                  1    wreg      void 
  2960 ;; Registers used:
  2961 ;;		wreg
  2962 ;; Tracked objects:
  2963 ;;		On entry : 0/0
  2964 ;;		On exit  : 0/0
  2965 ;;		Unchanged: 0/0
  2966 ;; Data sizes:     COMMON   BANK0   BANK1   BANK2
  2967 ;;      Params:         0       0       0       0
  2968 ;;      Locals:         0       0       0       0
  2969 ;;      Temps:          0       0       0       0
  2970 ;;      Totals:         0       0       0       0
  2971 ;;Total ram usage:        0 bytes
  2972 ;; Hardware stack levels used: 1
  2973 ;; This function calls:
  2974 ;;		Nothing
  2975 ;; This function is called by:
  2976 ;;		i1_turn_board_on
  2977 ;; This function uses a non-reentrant model
  2978 ;;
  2979                           
  2980     0A37                     i1_set_full_pwr:	
  2981                           ;psect for function i1_set_full_pwr
  2982                           
  2983     0A37                     i1l2576:	
  2984                           ;incstack = 0
  2985                           ; Regs used in i1_set_full_pwr: [wreg]
  2986                           
  2987                           
  2988                           ;task3/adjust_power.c: 19:     power_lvl = 1;
  2989     0A37  3001               	movlw	1
  2990     0A38  1683               	bsf	3,5	;RP0=1, select bank1
  2991     0A39  1303               	bcf	3,6	;RP1=0, select bank1
  2992     0A3A  00D5               	movwf	_power_lvl^(0+128)	;volatile
  2993     0A3B  3000               	movlw	0
  2994     0A3C  00D6               	movwf	(_power_lvl^(0+128)+1)	;volatile
  2995     0A3D                     i1l153:
  2996     0A3D  0008               	return
  2997     0A3E                     __end_ofi1_set_full_pwr:
  2998                           
  2999                           	psect	text23
  3000     0A11                     __ptext23:	
  3001 ;; *************** function _turn_board_off *****************
  3002 ;; Defined at:
  3003 ;;		line 7 in file "task4/state_change.c"
  3004 ;; Parameters:    Size  Location     Type
  3005 ;;		None
  3006 ;; Auto vars:     Size  Location     Type
  3007 ;;		None
  3008 ;; Return value:  Size  Location     Type
  3009 ;;                  1    wreg      void 
  3010 ;; Registers used:
  3011 ;;		wreg, status,2, status,0, pclath, cstack
  3012 ;; Tracked objects:
  3013 ;;		On entry : 0/0
  3014 ;;		On exit  : 0/0
  3015 ;;		Unchanged: 0/0
  3016 ;; Data sizes:     COMMON   BANK0   BANK1   BANK2
  3017 ;;      Params:         0       0       0       0
  3018 ;;      Locals:         0       0       0       0
  3019 ;;      Temps:          0       0       0       0
  3020 ;;      Totals:         0       0       0       0
  3021 ;;Total ram usage:        0 bytes
  3022 ;; Hardware stack levels used: 1
  3023 ;; Hardware stack levels required when called: 1
  3024 ;; This function calls:
  3025 ;;		_set_low_pwr
  3026 ;; This function is called by:
  3027 ;;		_set_state_according_to_pwr_btn
  3028 ;; This function uses a non-reentrant model
  3029 ;;
  3030                           
  3031     0A11                     _turn_board_off:	
  3032                           ;psect for function _turn_board_off
  3033                           
  3034     0A11                     i1l2634:	
  3035                           ;incstack = 0
  3036                           ; Regs used in _turn_board_off: [wreg+status,2+status,0+pclath+cstack]
  3037                           
  3038                           
  3039                           ;task4/state_change.c: 8:     set_low_pwr();
  3040     0A11  158A  2230  158A   	fcall	_set_low_pwr
  3041     0A14                     i1l170:
  3042     0A14  0008               	return
  3043     0A15                     __end_of_turn_board_off:
  3044                           
  3045                           	psect	text24
  3046     0A30                     __ptext24:	
  3047 ;; *************** function _set_low_pwr *****************
  3048 ;; Defined at:
  3049 ;;		line 12 in file "task3/adjust_power.c"
  3050 ;; Parameters:    Size  Location     Type
  3051 ;;		None
  3052 ;; Auto vars:     Size  Location     Type
  3053 ;;		None
  3054 ;; Return value:  Size  Location     Type
  3055 ;;                  1    wreg      void 
  3056 ;; Registers used:
  3057 ;;		wreg
  3058 ;; Tracked objects:
  3059 ;;		On entry : 0/0
  3060 ;;		On exit  : 0/0
  3061 ;;		Unchanged: 0/0
  3062 ;; Data sizes:     COMMON   BANK0   BANK1   BANK2
  3063 ;;      Params:         0       0       0       0
  3064 ;;      Locals:         0       0       0       0
  3065 ;;      Temps:          0       0       0       0
  3066 ;;      Totals:         0       0       0       0
  3067 ;;Total ram usage:        0 bytes
  3068 ;; Hardware stack levels used: 1
  3069 ;; This function calls:
  3070 ;;		Nothing
  3071 ;; This function is called by:
  3072 ;;		_turn_board_off
  3073 ;; This function uses a non-reentrant model
  3074 ;;
  3075                           
  3076     0A30                     _set_low_pwr:	
  3077                           ;psect for function _set_low_pwr
  3078                           
  3079     0A30                     i1l2430:	
  3080                           ;incstack = 0
  3081                           ; Regs used in _set_low_pwr: [wreg]
  3082                           
  3083                           
  3084                           ;task3/adjust_power.c: 14:     power_lvl = 1;
  3085     0A30  3001               	movlw	1
  3086     0A31  1683               	bsf	3,5	;RP0=1, select bank1
  3087     0A32  1303               	bcf	3,6	;RP1=0, select bank1
  3088     0A33  00D5               	movwf	_power_lvl^(0+128)	;volatile
  3089     0A34  3000               	movlw	0
  3090     0A35  00D6               	movwf	(_power_lvl^(0+128)+1)	;volatile
  3091     0A36                     i1l150:
  3092     0A36  0008               	return
  3093     0A37                     __end_of_set_low_pwr:
  3094                           
  3095                           	psect	text25
  3096     0A89                     __ptext25:	
  3097 ;; *************** function _is_pwr_btn_pressed *****************
  3098 ;; Defined at:
  3099 ;;		line 11 in file "task5/pwr_btn_control.c"
  3100 ;; Parameters:    Size  Location     Type
  3101 ;;		None
  3102 ;; Auto vars:     Size  Location     Type
  3103 ;;		None
  3104 ;; Return value:  Size  Location     Type
  3105 ;;                  2    0[COMMON] int 
  3106 ;; Registers used:
  3107 ;;		wreg, status,2, status,0
  3108 ;; Tracked objects:
  3109 ;;		On entry : 0/0
  3110 ;;		On exit  : 0/0
  3111 ;;		Unchanged: 0/0
  3112 ;; Data sizes:     COMMON   BANK0   BANK1   BANK2
  3113 ;;      Params:         2       0       0       0
  3114 ;;      Locals:         0       0       0       0
  3115 ;;      Temps:          3       0       0       0
  3116 ;;      Totals:         5       0       0       0
  3117 ;;Total ram usage:        5 bytes
  3118 ;; Hardware stack levels used: 1
  3119 ;; This function calls:
  3120 ;;		Nothing
  3121 ;; This function is called by:
  3122 ;;		_set_state_according_to_pwr_btn
  3123 ;; This function uses a non-reentrant model
  3124 ;;
  3125                           
  3126     0A89                     _is_pwr_btn_pressed:	
  3127                           ;psect for function _is_pwr_btn_pressed
  3128                           
  3129     0A89                     i1l2636:	
  3130                           ;incstack = 0
  3131                           ; Regs used in _is_pwr_btn_pressed: [wreg+status,2+status,0]
  3132                           
  3133                           
  3134                           ;task5/pwr_btn_control.c: 12:     return PORTCbits.RC2;
  3135     0A89  1283               	bcf	3,5	;RP0=0, select bank0
  3136     0A8A  1303               	bcf	3,6	;RP1=0, select bank0
  3137     0A8B  0C07               	rrf	7,w	;volatile
  3138     0A8C  00F2               	movwf	??_is_pwr_btn_pressed
  3139     0A8D  0C72               	rrf	??_is_pwr_btn_pressed,w
  3140     0A8E  3901               	andlw	1
  3141     0A8F  00F3               	movwf	??_is_pwr_btn_pressed+1
  3142     0A90  01F4               	clrf	??_is_pwr_btn_pressed+2
  3143     0A91  0873               	movf	??_is_pwr_btn_pressed+1,w
  3144     0A92  00F0               	movwf	?_is_pwr_btn_pressed
  3145     0A93  0874               	movf	??_is_pwr_btn_pressed+2,w
  3146     0A94  00F1               	movwf	?_is_pwr_btn_pressed+1
  3147     0A95                     i1l186:
  3148     0A95  0008               	return
  3149     0A96                     __end_of_is_pwr_btn_pressed:
  3150                           
  3151                           	psect	text26
  3152     0A29                     __ptext26:	
  3153 ;; *************** function _reset_adc_interrupt *****************
  3154 ;; Defined at:
  3155 ;;		line 30 in file "task2/zero_crossing.c"
  3156 ;; Parameters:    Size  Location     Type
  3157 ;;		None
  3158 ;; Auto vars:     Size  Location     Type
  3159 ;;		None
  3160 ;; Return value:  Size  Location     Type
  3161 ;;                  1    wreg      void 
  3162 ;; Registers used:
  3163 ;;		None
  3164 ;; Tracked objects:
  3165 ;;		On entry : 0/0
  3166 ;;		On exit  : 0/0
  3167 ;;		Unchanged: 0/0
  3168 ;; Data sizes:     COMMON   BANK0   BANK1   BANK2
  3169 ;;      Params:         0       0       0       0
  3170 ;;      Locals:         0       0       0       0
  3171 ;;      Temps:          0       0       0       0
  3172 ;;      Totals:         0       0       0       0
  3173 ;;Total ram usage:        0 bytes
  3174 ;; Hardware stack levels used: 1
  3175 ;; This function calls:
  3176 ;;		Nothing
  3177 ;; This function is called by:
  3178 ;;		_isr
  3179 ;; This function uses a non-reentrant model
  3180 ;;
  3181                           
  3182     0A29                     _reset_adc_interrupt:	
  3183                           ;psect for function _reset_adc_interrupt
  3184                           
  3185     0A29                     i1l2712:	
  3186                           ;incstack = 0
  3187                           ; Regs used in _reset_adc_interrupt: []
  3188                           
  3189                           
  3190                           ;task2/zero_crossing.c: 31:     PIE1bits.ADIE = 1;
  3191     0A29  1683               	bsf	3,5	;RP0=1, select bank1
  3192     0A2A  1303               	bcf	3,6	;RP1=0, select bank1
  3193     0A2B  170C               	bsf	12,6	;volatile
  3194                           
  3195                           ;task2/zero_crossing.c: 32:     PIR1bits.ADIF = 0;
  3196     0A2C  1283               	bcf	3,5	;RP0=0, select bank0
  3197     0A2D  1303               	bcf	3,6	;RP1=0, select bank0
  3198     0A2E  130C               	bcf	12,6	;volatile
  3199     0A2F                     i1l125:
  3200     0A2F  0008               	return
  3201     0A30                     __end_of_reset_adc_interrupt:
  3202                           
  3203                           	psect	text27
  3204     0B6D                     __ptext27:	
  3205 ;; *************** function _is_crossing_zero_point *****************
  3206 ;; Defined at:
  3207 ;;		line 43 in file "task2/zero_crossing.c"
  3208 ;; Parameters:    Size  Location     Type
  3209 ;;		None
  3210 ;; Auto vars:     Size  Location     Type
  3211 ;;		None
  3212 ;; Return value:  Size  Location     Type
  3213 ;;                  2   36[BANK0 ] int 
  3214 ;; Registers used:
  3215 ;;		wreg, status,2, status,0, btemp+1, pclath, cstack
  3216 ;; Tracked objects:
  3217 ;;		On entry : 0/0
  3218 ;;		On exit  : 0/0
  3219 ;;		Unchanged: 0/0
  3220 ;; Data sizes:     COMMON   BANK0   BANK1   BANK2
  3221 ;;      Params:         0       2       0       0
  3222 ;;      Locals:         0       0       0       0
  3223 ;;      Temps:          0       2       0       0
  3224 ;;      Totals:         0       4       0       0
  3225 ;;Total ram usage:        4 bytes
  3226 ;; Hardware stack levels used: 1
  3227 ;; Hardware stack levels required when called: 2
  3228 ;; This function calls:
  3229 ;;		___fleq
  3230 ;;		_get_conversion_result
  3231 ;; This function is called by:
  3232 ;;		_isr
  3233 ;; This function uses a non-reentrant model
  3234 ;;
  3235                           
  3236     0B6D                     _is_crossing_zero_point:	
  3237                           ;psect for function _is_crossing_zero_point
  3238                           
  3239     0B6D                     i1l2714:	
  3240                           ;incstack = 0
  3241                           ; Regs used in _is_crossing_zero_point: [wreg+status,2+status,0+btemp+1+pclath+cstack]
  3242                           
  3243                           
  3244                           ;task2/zero_crossing.c: 44:     return get_conversion_result() == 0;
  3245     0B6D  158A  2434  158A   	fcall	_get_conversion_result
  3246     0B70  1283               	bcf	3,5	;RP0=0, select bank0
  3247     0B71  1303               	bcf	3,6	;RP1=0, select bank0
  3248     0B72  0831               	movf	?_get_conversion_result+3,w
  3249     0B73  00BB               	movwf	___fleq@ff1+3
  3250     0B74  0830               	movf	?_get_conversion_result+2,w
  3251     0B75  00BA               	movwf	___fleq@ff1+2
  3252     0B76  082F               	movf	?_get_conversion_result+1,w
  3253     0B77  00B9               	movwf	___fleq@ff1+1
  3254     0B78  082E               	movf	?_get_conversion_result,w
  3255     0B79  00B8               	movwf	___fleq@ff1
  3256     0B7A  3000               	movlw	0
  3257     0B7B  00BF               	movwf	___fleq@ff2+3
  3258     0B7C  3000               	movlw	0
  3259     0B7D  00BE               	movwf	___fleq@ff2+2
  3260     0B7E  3000               	movlw	0
  3261     0B7F  00BD               	movwf	___fleq@ff2+1
  3262     0B80  3000               	movlw	0
  3263     0B81  00BC               	movwf	___fleq@ff2
  3264     0B82  158A  24FE  158A   	fcall	___fleq
  3265     0B85  3000               	movlw	0
  3266     0B86  1803               	skipnc
  3267     0B87  3001               	movlw	1
  3268     0B88  1283               	bcf	3,5	;RP0=0, select bank0
  3269     0B89  1303               	bcf	3,6	;RP1=0, select bank0
  3270     0B8A  00C6               	movwf	??_is_crossing_zero_point
  3271     0B8B  01C7               	clrf	??_is_crossing_zero_point+1
  3272     0B8C  0846               	movf	??_is_crossing_zero_point,w
  3273     0B8D  00C4               	movwf	?_is_crossing_zero_point
  3274     0B8E  0847               	movf	??_is_crossing_zero_point+1,w
  3275     0B8F  00C5               	movwf	?_is_crossing_zero_point+1
  3276     0B90                     i1l131:
  3277     0B90  0008               	return
  3278     0B91                     __end_of_is_crossing_zero_point:
  3279                           
  3280                           	psect	text28
  3281     0C34                     __ptext28:	
  3282 ;; *************** function _get_conversion_result *****************
  3283 ;; Defined at:
  3284 ;;		line 35 in file "task2/zero_crossing.c"
  3285 ;; Parameters:    Size  Location     Type
  3286 ;;		None
  3287 ;; Auto vars:     Size  Location     Type
  3288 ;;  voltage         4   18[BANK0 ] float 
  3289 ;;  adc_res         2   22[BANK0 ] int 
  3290 ;; Return value:  Size  Location     Type
  3291 ;;                  4   14[BANK0 ] float 
  3292 ;; Registers used:
  3293 ;;		wreg, status,2, status,0, btemp+1, pclath, cstack
  3294 ;; Tracked objects:
  3295 ;;		On entry : 0/0
  3296 ;;		On exit  : 0/0
  3297 ;;		Unchanged: 0/0
  3298 ;; Data sizes:     COMMON   BANK0   BANK1   BANK2
  3299 ;;      Params:         0       4       0       0
  3300 ;;      Locals:         0       6       0       0
  3301 ;;      Temps:          0       0       0       0
  3302 ;;      Totals:         0      10       0       0
  3303 ;;Total ram usage:       10 bytes
  3304 ;; Hardware stack levels used: 1
  3305 ;; Hardware stack levels required when called: 1
  3306 ;; This function calls:
  3307 ;;		___awdiv
  3308 ;;		___wmul
  3309 ;;		___xxtofl
  3310 ;; This function is called by:
  3311 ;;		_is_crossing_zero_point
  3312 ;; This function uses a non-reentrant model
  3313 ;;
  3314                           
  3315     0C34                     _get_conversion_result:	
  3316                           ;psect for function _get_conversion_result
  3317                           
  3318     0C34                     i1l2608:	
  3319                           ;incstack = 0
  3320                           ; Regs used in _get_conversion_result: [wreg+status,2+status,0+btemp+1+pclath+cstack]
  3321                           
  3322                           
  3323                           ;task2/zero_crossing.c: 36:     int adc_res = (ADRESH << 8) | ADRESL;
  3324     0C34  1283               	bcf	3,5	;RP0=0, select bank0
  3325     0C35  1303               	bcf	3,6	;RP1=0, select bank0
  3326     0C36  081E               	movf	30,w	;volatile
  3327     0C37  00B7               	movwf	get_conversion_result@adc_res+1
  3328     0C38  1683               	bsf	3,5	;RP0=1, select bank1
  3329     0C39  1303               	bcf	3,6	;RP1=0, select bank1
  3330     0C3A  081E               	movf	30,w	;volatile
  3331     0C3B  1283               	bcf	3,5	;RP0=0, select bank0
  3332     0C3C  1303               	bcf	3,6	;RP1=0, select bank0
  3333     0C3D  00B6               	movwf	get_conversion_result@adc_res
  3334     0C3E                     i1l2610:
  3335                           
  3336                           ;task2/zero_crossing.c: 38:     float voltage = (adc_res * 5) / (2^10 - 1);
  3337     0C3E  3005               	movlw	5
  3338     0C3F  00F2               	movwf	___wmul@multiplicand
  3339     0C40  3000               	movlw	0
  3340     0C41  00F3               	movwf	___wmul@multiplicand+1
  3341     0C42  0837               	movf	get_conversion_result@adc_res+1,w
  3342     0C43  00F1               	movwf	___wmul@multiplier+1
  3343     0C44  0836               	movf	get_conversion_result@adc_res,w
  3344     0C45  00F0               	movwf	___wmul@multiplier
  3345     0C46  158A  2391  158A   	fcall	___wmul
  3346     0C49  0871               	movf	?___wmul+1,w
  3347     0C4A  00F9               	movwf	___awdiv@dividend+1
  3348     0C4B  0870               	movf	?___wmul,w
  3349     0C4C  00F8               	movwf	___awdiv@dividend
  3350     0C4D  300B               	movlw	11
  3351     0C4E  00F6               	movwf	___awdiv@divisor
  3352     0C4F  3000               	movlw	0
  3353     0C50  00F7               	movwf	___awdiv@divisor+1
  3354     0C51  158A  254E  158A   	fcall	___awdiv
  3355     0C54  0876               	movf	?___awdiv,w
  3356     0C55  1283               	bcf	3,5	;RP0=0, select bank0
  3357     0C56  1303               	bcf	3,6	;RP1=0, select bank0
  3358     0C57  00A0               	movwf	___xxtofl@val
  3359     0C58  0877               	movf	?___awdiv+1,w
  3360     0C59  00A1               	movwf	___xxtofl@val+1
  3361     0C5A  3000               	movlw	0
  3362     0C5B  1BA1               	btfsc	___xxtofl@val+1,7
  3363     0C5C  30FF               	movlw	255
  3364     0C5D  00A2               	movwf	___xxtofl@val+2
  3365     0C5E  00A3               	movwf	___xxtofl@val+3
  3366     0C5F  3001               	movlw	1
  3367     0C60  158A  264F  158A   	fcall	___xxtofl
  3368     0C63  1283               	bcf	3,5	;RP0=0, select bank0
  3369     0C64  1303               	bcf	3,6	;RP1=0, select bank0
  3370     0C65  0823               	movf	?___xxtofl+3,w
  3371     0C66  00B5               	movwf	get_conversion_result@voltage+3
  3372     0C67  0822               	movf	?___xxtofl+2,w
  3373     0C68  00B4               	movwf	get_conversion_result@voltage+2
  3374     0C69  0821               	movf	?___xxtofl+1,w
  3375     0C6A  00B3               	movwf	get_conversion_result@voltage+1
  3376     0C6B  0820               	movf	?___xxtofl,w
  3377     0C6C  00B2               	movwf	get_conversion_result@voltage
  3378     0C6D                     i1l2612:
  3379                           
  3380                           ;task2/zero_crossing.c: 40:     return voltage;
  3381     0C6D  0835               	movf	get_conversion_result@voltage+3,w
  3382     0C6E  00B1               	movwf	?_get_conversion_result+3
  3383     0C6F  0834               	movf	get_conversion_result@voltage+2,w
  3384     0C70  00B0               	movwf	?_get_conversion_result+2
  3385     0C71  0833               	movf	get_conversion_result@voltage+1,w
  3386     0C72  00AF               	movwf	?_get_conversion_result+1
  3387     0C73  0832               	movf	get_conversion_result@voltage,w
  3388     0C74  00AE               	movwf	?_get_conversion_result
  3389     0C75                     i1l128:
  3390     0C75  0008               	return
  3391     0C76                     __end_of_get_conversion_result:
  3392                           
  3393                           	psect	text29
  3394     0B91                     __ptext29:	
  3395 ;; *************** function ___wmul *****************
  3396 ;; Defined at:
  3397 ;;		line 15 in file "C:\Program Files\Microchip\xc8\v2.45\pic\sources\c99\common\Umul16.c"
  3398 ;; Parameters:    Size  Location     Type
  3399 ;;  multiplier      2    0[COMMON] unsigned int 
  3400 ;;  multiplicand    2    2[COMMON] unsigned int 
  3401 ;; Auto vars:     Size  Location     Type
  3402 ;;  product         2    4[COMMON] unsigned int 
  3403 ;; Return value:  Size  Location     Type
  3404 ;;                  2    0[COMMON] unsigned int 
  3405 ;; Registers used:
  3406 ;;		wreg, status,2, status,0
  3407 ;; Tracked objects:
  3408 ;;		On entry : 0/0
  3409 ;;		On exit  : 0/0
  3410 ;;		Unchanged: 0/0
  3411 ;; Data sizes:     COMMON   BANK0   BANK1   BANK2
  3412 ;;      Params:         4       0       0       0
  3413 ;;      Locals:         2       0       0       0
  3414 ;;      Temps:          0       0       0       0
  3415 ;;      Totals:         6       0       0       0
  3416 ;;Total ram usage:        6 bytes
  3417 ;; Hardware stack levels used: 1
  3418 ;; This function calls:
  3419 ;;		Nothing
  3420 ;; This function is called by:
  3421 ;;		_get_conversion_result
  3422 ;; This function uses a non-reentrant model
  3423 ;;
  3424                           
  3425     0B91                     ___wmul:	
  3426                           ;psect for function ___wmul
  3427                           
  3428     0B91                     i1l2444:	
  3429                           ;incstack = 0
  3430                           ; Regs used in ___wmul: [wreg+status,2+status,0]
  3431                           
  3432     0B91  01F4               	clrf	___wmul@product
  3433     0B92  01F5               	clrf	___wmul@product+1
  3434     0B93                     i1l2446:
  3435     0B93  1C70               	btfss	___wmul@multiplier,0
  3436     0B94  2B96               	goto	u313_21
  3437     0B95  2B97               	goto	u313_20
  3438     0B96                     u313_21:
  3439     0B96  2B9D               	goto	i1l366
  3440     0B97                     u313_20:
  3441     0B97                     i1l2448:
  3442     0B97  0872               	movf	___wmul@multiplicand,w
  3443     0B98  07F4               	addwf	___wmul@product,f
  3444     0B99  1803               	skipnc
  3445     0B9A  0AF5               	incf	___wmul@product+1,f
  3446     0B9B  0873               	movf	___wmul@multiplicand+1,w
  3447     0B9C  07F5               	addwf	___wmul@product+1,f
  3448     0B9D                     i1l366:
  3449     0B9D  3001               	movlw	1
  3450     0B9E                     u314_25:
  3451     0B9E  1003               	clrc
  3452     0B9F  0DF2               	rlf	___wmul@multiplicand,f
  3453     0BA0  0DF3               	rlf	___wmul@multiplicand+1,f
  3454     0BA1  3EFF               	addlw	-1
  3455     0BA2  1D03               	skipz
  3456     0BA3  2B9E               	goto	u314_25
  3457     0BA4                     i1l2450:
  3458     0BA4  3001               	movlw	1
  3459     0BA5                     u315_25:
  3460     0BA5  1003               	clrc
  3461     0BA6  0CF1               	rrf	___wmul@multiplier+1,f
  3462     0BA7  0CF0               	rrf	___wmul@multiplier,f
  3463     0BA8  3EFF               	addlw	-1
  3464     0BA9  1D03               	skipz
  3465     0BAA  2BA5               	goto	u315_25
  3466     0BAB                     i1l2452:
  3467     0BAB  0870               	movf	___wmul@multiplier,w
  3468     0BAC  0471               	iorwf	___wmul@multiplier+1,w
  3469     0BAD  1D03               	btfss	3,2
  3470     0BAE  2BB0               	goto	u316_21
  3471     0BAF  2BB1               	goto	u316_20
  3472     0BB0                     u316_21:
  3473     0BB0  2B93               	goto	i1l2446
  3474     0BB1                     u316_20:
  3475     0BB1                     i1l2454:
  3476     0BB1  0875               	movf	___wmul@product+1,w
  3477     0BB2  00F1               	movwf	?___wmul+1
  3478     0BB3  0874               	movf	___wmul@product,w
  3479     0BB4  00F0               	movwf	?___wmul
  3480     0BB5                     i1l368:
  3481     0BB5  0008               	return
  3482     0BB6                     __end_of___wmul:
  3483                           
  3484                           	psect	text30
  3485     0D4E                     __ptext30:	
  3486 ;; *************** function ___awdiv *****************
  3487 ;; Defined at:
  3488 ;;		line 5 in file "C:\Program Files\Microchip\xc8\v2.45\pic\sources\c99\common\awdiv.c"
  3489 ;; Parameters:    Size  Location     Type
  3490 ;;  divisor         2    6[COMMON] int 
  3491 ;;  dividend        2    8[COMMON] int 
  3492 ;; Auto vars:     Size  Location     Type
  3493 ;;  quotient        2   12[COMMON] int 
  3494 ;;  sign            1   11[COMMON] unsigned char 
  3495 ;;  counter         1   10[COMMON] unsigned char 
  3496 ;; Return value:  Size  Location     Type
  3497 ;;                  2    6[COMMON] int 
  3498 ;; Registers used:
  3499 ;;		wreg, status,2, status,0, btemp+1
  3500 ;; Tracked objects:
  3501 ;;		On entry : 0/0
  3502 ;;		On exit  : 0/0
  3503 ;;		Unchanged: 0/0
  3504 ;; Data sizes:     COMMON   BANK0   BANK1   BANK2
  3505 ;;      Params:         4       0       0       0
  3506 ;;      Locals:         4       0       0       0
  3507 ;;      Temps:          0       0       0       0
  3508 ;;      Totals:         8       0       0       0
  3509 ;;Total ram usage:        8 bytes
  3510 ;; Hardware stack levels used: 1
  3511 ;; This function calls:
  3512 ;;		Nothing
  3513 ;; This function is called by:
  3514 ;;		_get_conversion_result
  3515 ;; This function uses a non-reentrant model
  3516 ;;
  3517                           
  3518     0D4E                     ___awdiv:	
  3519                           ;psect for function ___awdiv
  3520                           
  3521     0D4E                     i1l2458:	
  3522                           ;incstack = 0
  3523                           ; Regs used in ___awdiv: [wreg+status,2+status,0+btemp+1]
  3524                           
  3525     0D4E  01FB               	clrf	___awdiv@sign
  3526     0D4F                     i1l2460:
  3527     0D4F  1FF7               	btfss	___awdiv@divisor+1,7
  3528     0D50  2D52               	goto	u317_21
  3529     0D51  2D53               	goto	u317_20
  3530     0D52                     u317_21:
  3531     0D52  2D5A               	goto	i1l2466
  3532     0D53                     u317_20:
  3533     0D53                     i1l2462:
  3534     0D53  09F6               	comf	___awdiv@divisor,f
  3535     0D54  09F7               	comf	___awdiv@divisor+1,f
  3536     0D55  0AF6               	incf	___awdiv@divisor,f
  3537     0D56  1903               	skipnz
  3538     0D57  0AF7               	incf	___awdiv@divisor+1,f
  3539     0D58                     i1l2464:
  3540     0D58  01FB               	clrf	___awdiv@sign
  3541     0D59  0AFB               	incf	___awdiv@sign,f
  3542     0D5A                     i1l2466:
  3543     0D5A  1FF9               	btfss	___awdiv@dividend+1,7
  3544     0D5B  2D5D               	goto	u318_21
  3545     0D5C  2D5E               	goto	u318_20
  3546     0D5D                     u318_21:
  3547     0D5D  2D67               	goto	i1l2472
  3548     0D5E                     u318_20:
  3549     0D5E                     i1l2468:
  3550     0D5E  09F8               	comf	___awdiv@dividend,f
  3551     0D5F  09F9               	comf	___awdiv@dividend+1,f
  3552     0D60  0AF8               	incf	___awdiv@dividend,f
  3553     0D61  1903               	skipnz
  3554     0D62  0AF9               	incf	___awdiv@dividend+1,f
  3555     0D63                     i1l2470:
  3556     0D63  3001               	movlw	1
  3557     0D64  00FF               	movwf	btemp+1
  3558     0D65  087F               	movf	btemp+1,w
  3559     0D66  06FB               	xorwf	___awdiv@sign,f
  3560     0D67                     i1l2472:
  3561     0D67  01FC               	clrf	___awdiv@quotient
  3562     0D68  01FD               	clrf	___awdiv@quotient+1
  3563     0D69                     i1l2474:
  3564     0D69  0876               	movf	___awdiv@divisor,w
  3565     0D6A  0477               	iorwf	___awdiv@divisor+1,w
  3566     0D6B  1903               	btfsc	3,2
  3567     0D6C  2D6E               	goto	u319_21
  3568     0D6D  2D6F               	goto	u319_20
  3569     0D6E                     u319_21:
  3570     0D6E  2DA6               	goto	i1l2494
  3571     0D6F                     u319_20:
  3572     0D6F                     i1l2476:
  3573     0D6F  01FA               	clrf	___awdiv@counter
  3574     0D70  0AFA               	incf	___awdiv@counter,f
  3575     0D71  2D7D               	goto	i1l2482
  3576     0D72                     i1l2478:
  3577     0D72  3001               	movlw	1
  3578     0D73                     u320_25:
  3579     0D73  1003               	clrc
  3580     0D74  0DF6               	rlf	___awdiv@divisor,f
  3581     0D75  0DF7               	rlf	___awdiv@divisor+1,f
  3582     0D76  3EFF               	addlw	-1
  3583     0D77  1D03               	skipz
  3584     0D78  2D73               	goto	u320_25
  3585     0D79                     i1l2480:
  3586     0D79  3001               	movlw	1
  3587     0D7A  00FF               	movwf	btemp+1
  3588     0D7B  087F               	movf	btemp+1,w
  3589     0D7C  07FA               	addwf	___awdiv@counter,f
  3590     0D7D                     i1l2482:
  3591     0D7D  1FF7               	btfss	___awdiv@divisor+1,7
  3592     0D7E  2D80               	goto	u321_21
  3593     0D7F  2D81               	goto	u321_20
  3594     0D80                     u321_21:
  3595     0D80  2D72               	goto	i1l2478
  3596     0D81                     u321_20:
  3597     0D81                     i1l2484:
  3598     0D81  3001               	movlw	1
  3599     0D82                     u322_25:
  3600     0D82  1003               	clrc
  3601     0D83  0DFC               	rlf	___awdiv@quotient,f
  3602     0D84  0DFD               	rlf	___awdiv@quotient+1,f
  3603     0D85  3EFF               	addlw	-1
  3604     0D86  1D03               	skipz
  3605     0D87  2D82               	goto	u322_25
  3606     0D88  0877               	movf	___awdiv@divisor+1,w
  3607     0D89  0279               	subwf	___awdiv@dividend+1,w
  3608     0D8A  1D03               	skipz
  3609     0D8B  2D8E               	goto	u323_25
  3610     0D8C  0876               	movf	___awdiv@divisor,w
  3611     0D8D  0278               	subwf	___awdiv@dividend,w
  3612     0D8E                     u323_25:
  3613     0D8E  1C03               	skipc
  3614     0D8F  2D91               	goto	u323_21
  3615     0D90  2D92               	goto	u323_20
  3616     0D91                     u323_21:
  3617     0D91  2D99               	goto	i1l2490
  3618     0D92                     u323_20:
  3619     0D92                     i1l2486:
  3620     0D92  0876               	movf	___awdiv@divisor,w
  3621     0D93  02F8               	subwf	___awdiv@dividend,f
  3622     0D94  0877               	movf	___awdiv@divisor+1,w
  3623     0D95  1C03               	skipc
  3624     0D96  03F9               	decf	___awdiv@dividend+1,f
  3625     0D97  02F9               	subwf	___awdiv@dividend+1,f
  3626     0D98                     i1l2488:
  3627     0D98  147C               	bsf	___awdiv@quotient,0
  3628     0D99                     i1l2490:
  3629     0D99  3001               	movlw	1
  3630     0D9A                     u324_25:
  3631     0D9A  1003               	clrc
  3632     0D9B  0CF7               	rrf	___awdiv@divisor+1,f
  3633     0D9C  0CF6               	rrf	___awdiv@divisor,f
  3634     0D9D  3EFF               	addlw	-1
  3635     0D9E  1D03               	skipz
  3636     0D9F  2D9A               	goto	u324_25
  3637     0DA0                     i1l2492:
  3638     0DA0  3001               	movlw	1
  3639     0DA1  02FA               	subwf	___awdiv@counter,f
  3640     0DA2  1D03               	btfss	3,2
  3641     0DA3  2DA5               	goto	u325_21
  3642     0DA4  2DA6               	goto	u325_20
  3643     0DA5                     u325_21:
  3644     0DA5  2D81               	goto	i1l2484
  3645     0DA6                     u325_20:
  3646     0DA6                     i1l2494:
  3647     0DA6  087B               	movf	___awdiv@sign,w
  3648     0DA7  1903               	btfsc	3,2
  3649     0DA8  2DAA               	goto	u326_21
  3650     0DA9  2DAB               	goto	u326_20
  3651     0DAA                     u326_21:
  3652     0DAA  2DB0               	goto	i1l2498
  3653     0DAB                     u326_20:
  3654     0DAB                     i1l2496:
  3655     0DAB  09FC               	comf	___awdiv@quotient,f
  3656     0DAC  09FD               	comf	___awdiv@quotient+1,f
  3657     0DAD  0AFC               	incf	___awdiv@quotient,f
  3658     0DAE  1903               	skipnz
  3659     0DAF  0AFD               	incf	___awdiv@quotient+1,f
  3660     0DB0                     i1l2498:
  3661     0DB0  087D               	movf	___awdiv@quotient+1,w
  3662     0DB1  00F7               	movwf	?___awdiv+1
  3663     0DB2  087C               	movf	___awdiv@quotient,w
  3664     0DB3  00F6               	movwf	?___awdiv
  3665     0DB4                     i1l519:
  3666     0DB4  0008               	return
  3667     0DB5                     __end_of___awdiv:
  3668                           
  3669                           	psect	text31
  3670     0CFE                     __ptext31:	
  3671 ;; *************** function ___fleq *****************
  3672 ;; Defined at:
  3673 ;;		line 4 in file "C:\Program Files\Microchip\xc8\v2.45\pic\sources\c99\common\fleq.c"
  3674 ;; Parameters:    Size  Location     Type
  3675 ;;  ff1             4   24[BANK0 ] int 
  3676 ;;  ff2             4   28[BANK0 ] int 
  3677 ;; Auto vars:     Size  Location     Type
  3678 ;;		None
  3679 ;; Return value:  Size  Location     Type
  3680 ;;		None               void
  3681 ;; Registers used:
  3682 ;;		wreg, status,2, status,0
  3683 ;; Tracked objects:
  3684 ;;		On entry : 0/0
  3685 ;;		On exit  : 0/0
  3686 ;;		Unchanged: 0/0
  3687 ;; Data sizes:     COMMON   BANK0   BANK1   BANK2
  3688 ;;      Params:         0       8       0       0
  3689 ;;      Locals:         0       0       0       0
  3690 ;;      Temps:          0       4       0       0
  3691 ;;      Totals:         0      12       0       0
  3692 ;;Total ram usage:       12 bytes
  3693 ;; Hardware stack levels used: 1
  3694 ;; This function calls:
  3695 ;;		Nothing
  3696 ;; This function is called by:
  3697 ;;		_is_crossing_zero_point
  3698 ;; This function uses a non-reentrant model
  3699 ;;
  3700                           
  3701     0CFE                     ___fleq:	
  3702                           ;psect for function ___fleq
  3703                           
  3704     0CFE                     i1l2652:	
  3705                           ;incstack = 0
  3706                           ; Regs used in ___fleq: [wreg+status,2+status,0]
  3707                           
  3708     0CFE  3000               	movlw	0
  3709     0CFF  1283               	bcf	3,5	;RP0=0, select bank0
  3710     0D00  1303               	bcf	3,6	;RP1=0, select bank0
  3711     0D01  0538               	andwf	___fleq@ff1,w
  3712     0D02  00C0               	movwf	??___fleq
  3713     0D03  3000               	movlw	0
  3714     0D04  0539               	andwf	___fleq@ff1+1,w
  3715     0D05  00C1               	movwf	??___fleq+1
  3716     0D06  3080               	movlw	128
  3717     0D07  053A               	andwf	___fleq@ff1+2,w
  3718     0D08  00C2               	movwf	??___fleq+2
  3719     0D09  307F               	movlw	127
  3720     0D0A  053B               	andwf	___fleq@ff1+3,w
  3721     0D0B  00C3               	movwf	??___fleq+3
  3722     0D0C  0843               	movf	??___fleq+3,w
  3723     0D0D  0442               	iorwf	??___fleq+2,w
  3724     0D0E  0441               	iorwf	??___fleq+1,w
  3725     0D0F  0440               	iorwf	??___fleq,w
  3726     0D10  1D03               	skipz
  3727     0D11  2D13               	goto	u352_21
  3728     0D12  2D14               	goto	u352_20
  3729     0D13                     u352_21:
  3730     0D13  2D1C               	goto	i1l535
  3731     0D14                     u352_20:
  3732     0D14                     i1l2654:
  3733     0D14  3000               	movlw	0
  3734     0D15  00BB               	movwf	___fleq@ff1+3
  3735     0D16  3000               	movlw	0
  3736     0D17  00BA               	movwf	___fleq@ff1+2
  3737     0D18  3000               	movlw	0
  3738     0D19  00B9               	movwf	___fleq@ff1+1
  3739     0D1A  3000               	movlw	0
  3740     0D1B  00B8               	movwf	___fleq@ff1
  3741     0D1C                     i1l535:
  3742     0D1C  3000               	movlw	0
  3743     0D1D  053C               	andwf	___fleq@ff2,w
  3744     0D1E  00C0               	movwf	??___fleq
  3745     0D1F  3000               	movlw	0
  3746     0D20  053D               	andwf	___fleq@ff2+1,w
  3747     0D21  00C1               	movwf	??___fleq+1
  3748     0D22  3080               	movlw	128
  3749     0D23  053E               	andwf	___fleq@ff2+2,w
  3750     0D24  00C2               	movwf	??___fleq+2
  3751     0D25  307F               	movlw	127
  3752     0D26  053F               	andwf	___fleq@ff2+3,w
  3753     0D27  00C3               	movwf	??___fleq+3
  3754     0D28  0843               	movf	??___fleq+3,w
  3755     0D29  0442               	iorwf	??___fleq+2,w
  3756     0D2A  0441               	iorwf	??___fleq+1,w
  3757     0D2B  0440               	iorwf	??___fleq,w
  3758     0D2C  1D03               	skipz
  3759     0D2D  2D2F               	goto	u353_21
  3760     0D2E  2D30               	goto	u353_20
  3761     0D2F                     u353_21:
  3762     0D2F  2D38               	goto	i1l536
  3763     0D30                     u353_20:
  3764     0D30                     i1l2656:
  3765     0D30  3000               	movlw	0
  3766     0D31  00BF               	movwf	___fleq@ff2+3
  3767     0D32  3000               	movlw	0
  3768     0D33  00BE               	movwf	___fleq@ff2+2
  3769     0D34  3000               	movlw	0
  3770     0D35  00BD               	movwf	___fleq@ff2+1
  3771     0D36  3000               	movlw	0
  3772     0D37  00BC               	movwf	___fleq@ff2
  3773     0D38                     i1l536:
  3774     0D38  083F               	movf	___fleq@ff2+3,w
  3775     0D39  063B               	xorwf	___fleq@ff1+3,w
  3776     0D3A  1D03               	skipz
  3777     0D3B  2D46               	goto	u354_25
  3778     0D3C  083E               	movf	___fleq@ff2+2,w
  3779     0D3D  063A               	xorwf	___fleq@ff1+2,w
  3780     0D3E  1D03               	skipz
  3781     0D3F  2D46               	goto	u354_25
  3782     0D40  083D               	movf	___fleq@ff2+1,w
  3783     0D41  0639               	xorwf	___fleq@ff1+1,w
  3784     0D42  1D03               	skipz
  3785     0D43  2D46               	goto	u354_25
  3786     0D44  083C               	movf	___fleq@ff2,w
  3787     0D45  0638               	xorwf	___fleq@ff1,w
  3788     0D46                     u354_25:
  3789     0D46  1903               	skipnz
  3790     0D47  2D49               	goto	u354_21
  3791     0D48  2D4A               	goto	u354_20
  3792     0D49                     u354_21:
  3793     0D49  2D4C               	goto	i1l2660
  3794     0D4A                     u354_20:
  3795     0D4A                     i1l2658:
  3796     0D4A  1003               	clrc
  3797     0D4B  2D4D               	goto	i1l541
  3798     0D4C                     i1l2660:
  3799     0D4C  1403               	setc
  3800     0D4D                     i1l541:
  3801     0D4D  0008               	return
  3802     0D4E                     __end_of___fleq:
  3803                           
  3804                           	psect	text32
  3805     0AC9                     __ptext32:	
  3806 ;; *************** function _is_adc_conversion_done *****************
  3807 ;; Defined at:
  3808 ;;		line 26 in file "task2/zero_crossing.c"
  3809 ;; Parameters:    Size  Location     Type
  3810 ;;		None
  3811 ;; Auto vars:     Size  Location     Type
  3812 ;;		None
  3813 ;; Return value:  Size  Location     Type
  3814 ;;                  2    0[COMMON] int 
  3815 ;; Registers used:
  3816 ;;		wreg, status,2
  3817 ;; Tracked objects:
  3818 ;;		On entry : 0/0
  3819 ;;		On exit  : 0/0
  3820 ;;		Unchanged: 0/0
  3821 ;; Data sizes:     COMMON   BANK0   BANK1   BANK2
  3822 ;;      Params:         2       0       0       0
  3823 ;;      Locals:         1       0       0       0
  3824 ;;      Temps:          2       0       0       0
  3825 ;;      Totals:         5       0       0       0
  3826 ;;Total ram usage:        5 bytes
  3827 ;; Hardware stack levels used: 1
  3828 ;; This function calls:
  3829 ;;		Nothing
  3830 ;; This function is called by:
  3831 ;;		_isr
  3832 ;; This function uses a non-reentrant model
  3833 ;;
  3834                           
  3835     0AC9                     _is_adc_conversion_done:	
  3836                           ;psect for function _is_adc_conversion_done
  3837                           
  3838     0AC9                     i1l2700:	
  3839                           ;incstack = 0
  3840                           ; Regs used in _is_adc_conversion_done: [wreg+status,2]
  3841                           
  3842                           
  3843                           ;task2/zero_crossing.c: 27:     return ADCON0bits.ADON && PIR1bits.ADIF;
  3844     0AC9  01F4               	clrf	_is_adc_conversion_done$443
  3845     0ACA                     i1l2702:
  3846     0ACA  1283               	bcf	3,5	;RP0=0, select bank0
  3847     0ACB  1303               	bcf	3,6	;RP1=0, select bank0
  3848     0ACC  1C1F               	btfss	31,0	;volatile
  3849     0ACD  2ACF               	goto	u361_21
  3850     0ACE  2AD0               	goto	u361_20
  3851     0ACF                     u361_21:
  3852     0ACF  2AD6               	goto	i1l2708
  3853     0AD0                     u361_20:
  3854     0AD0                     i1l2704:
  3855     0AD0  1F0C               	btfss	12,6	;volatile
  3856     0AD1  2AD3               	goto	u362_21
  3857     0AD2  2AD4               	goto	u362_20
  3858     0AD3                     u362_21:
  3859     0AD3  2AD6               	goto	i1l2708
  3860     0AD4                     u362_20:
  3861     0AD4                     i1l2706:
  3862     0AD4  01F4               	clrf	_is_adc_conversion_done$443
  3863     0AD5  0AF4               	incf	_is_adc_conversion_done$443,f
  3864     0AD6                     i1l2708:
  3865     0AD6  0874               	movf	_is_adc_conversion_done$443,w
  3866     0AD7  00F2               	movwf	??_is_adc_conversion_done
  3867     0AD8  01F3               	clrf	??_is_adc_conversion_done+1
  3868     0AD9  0872               	movf	??_is_adc_conversion_done,w
  3869     0ADA  00F0               	movwf	?_is_adc_conversion_done
  3870     0ADB  0873               	movf	??_is_adc_conversion_done+1,w
  3871     0ADC  00F1               	movwf	?_is_adc_conversion_done+1
  3872     0ADD                     i1l122:
  3873     0ADD  0008               	return
  3874     0ADE                     __end_of_is_adc_conversion_done:
  3875                           
  3876                           	psect	text33
  3877     0BDD                     __ptext33:	
  3878 ;; *************** function _interrupt_caused_by_timer *****************
  3879 ;; Defined at:
  3880 ;;		line 56 in file "general.c"
  3881 ;; Parameters:    Size  Location     Type
  3882 ;;		None
  3883 ;; Auto vars:     Size  Location     Type
  3884 ;;		None
  3885 ;; Return value:  Size  Location     Type
  3886 ;;                  2    0[COMMON] int 
  3887 ;; Registers used:
  3888 ;;		wreg, status,2, status,0
  3889 ;; Tracked objects:
  3890 ;;		On entry : 0/0
  3891 ;;		On exit  : 0/0
  3892 ;;		Unchanged: 0/0
  3893 ;; Data sizes:     COMMON   BANK0   BANK1   BANK2
  3894 ;;      Params:         2       0       0       0
  3895 ;;      Locals:         0       0       0       0
  3896 ;;      Temps:          0       0       0       0
  3897 ;;      Totals:         2       0       0       0
  3898 ;;Total ram usage:        2 bytes
  3899 ;; Hardware stack levels used: 1
  3900 ;; This function calls:
  3901 ;;		Nothing
  3902 ;; This function is called by:
  3903 ;;		_isr
  3904 ;; This function uses a non-reentrant model
  3905 ;;
  3906                           
  3907     0BDD                     _interrupt_caused_by_timer:	
  3908                           ;psect for function _interrupt_caused_by_timer
  3909                           
  3910     0BDD                     i1l2666:	
  3911                           ;incstack = 0
  3912                           ; Regs used in _interrupt_caused_by_timer: [wreg+status,2+status,0]
  3913                           
  3914                           
  3915                           ;general.c: 57:     if (PIR1bits.TMR1IF && timer1_running) {
  3916     0BDD  1283               	bcf	3,5	;RP0=0, select bank0
  3917     0BDE  1303               	bcf	3,6	;RP1=0, select bank0
  3918     0BDF  1C0C               	btfss	12,0	;volatile
  3919     0BE0  2BE2               	goto	u355_21
  3920     0BE1  2BE3               	goto	u355_20
  3921     0BE2                     u355_21:
  3922     0BE2  2BF0               	goto	i1l273
  3923     0BE3                     u355_20:
  3924     0BE3                     i1l2668:
  3925     0BE3  1683               	bsf	3,5	;RP0=1, select bank1
  3926     0BE4  1303               	bcf	3,6	;RP1=0, select bank1
  3927     0BE5  0853               	movf	_timer1_running^(0+128),w
  3928     0BE6  0454               	iorwf	(_timer1_running+1)^(0+128),w
  3929     0BE7  1903               	btfsc	3,2
  3930     0BE8  2BEA               	goto	u356_21
  3931     0BE9  2BEB               	goto	u356_20
  3932     0BEA                     u356_21:
  3933     0BEA  2BF0               	goto	i1l273
  3934     0BEB                     u356_20:
  3935     0BEB                     i1l2670:
  3936                           
  3937                           ;general.c: 58:         return 1;
  3938     0BEB  3001               	movlw	1
  3939     0BEC  00F0               	movwf	?_interrupt_caused_by_timer
  3940     0BED  3000               	movlw	0
  3941     0BEE  00F1               	movwf	?_interrupt_caused_by_timer+1
  3942     0BEF  2C04               	goto	i1l274
  3943     0BF0                     i1l273:	
  3944                           ;general.c: 59:     }
  3945                           
  3946                           
  3947                           ;general.c: 61:     if (PIR1bits.TMR2IF && timer2_running) {
  3948     0BF0  1283               	bcf	3,5	;RP0=0, select bank0
  3949     0BF1  1C8C               	btfss	12,1	;volatile
  3950     0BF2  2BF4               	goto	u357_21
  3951     0BF3  2BF5               	goto	u357_20
  3952     0BF4                     u357_21:
  3953     0BF4  2C02               	goto	i1l2680
  3954     0BF5                     u357_20:
  3955     0BF5                     i1l2674:
  3956     0BF5  1683               	bsf	3,5	;RP0=1, select bank1
  3957     0BF6  1303               	bcf	3,6	;RP1=0, select bank1
  3958     0BF7  0851               	movf	_timer2_running^(0+128),w
  3959     0BF8  0452               	iorwf	(_timer2_running+1)^(0+128),w
  3960     0BF9  1903               	btfsc	3,2
  3961     0BFA  2BFC               	goto	u358_21
  3962     0BFB  2BFD               	goto	u358_20
  3963     0BFC                     u358_21:
  3964     0BFC  2C02               	goto	i1l2680
  3965     0BFD                     u358_20:
  3966     0BFD                     i1l2676:
  3967                           
  3968                           ;general.c: 62:         return 2;
  3969     0BFD  3002               	movlw	2
  3970     0BFE  00F0               	movwf	?_interrupt_caused_by_timer
  3971     0BFF  3000               	movlw	0
  3972     0C00  00F1               	movwf	?_interrupt_caused_by_timer+1
  3973     0C01  2C04               	goto	i1l274
  3974     0C02                     i1l2680:
  3975                           
  3976                           ;general.c: 65:     return 0;
  3977     0C02  01F0               	clrf	?_interrupt_caused_by_timer
  3978     0C03  01F1               	clrf	?_interrupt_caused_by_timer+1
  3979     0C04                     i1l274:
  3980     0C04  0008               	return
  3981     0C05                     __end_of_interrupt_caused_by_timer:
  3982                           
  3983                           	psect	text34
  3984     0AF3                     __ptext34:	
  3985 ;; *************** function _board_pwr_pulse *****************
  3986 ;; Defined at:
  3987 ;;		line 26 in file "task3/adjust_power.c"
  3988 ;; Parameters:    Size  Location     Type
  3989 ;;		None
  3990 ;; Auto vars:     Size  Location     Type
  3991 ;;		None
  3992 ;; Return value:  Size  Location     Type
  3993 ;;                  1    wreg      void 
  3994 ;; Registers used:
  3995 ;;		wreg, status,2, status,0, btemp+1, pclath, cstack
  3996 ;; Tracked objects:
  3997 ;;		On entry : 0/0
  3998 ;;		On exit  : 0/0
  3999 ;;		Unchanged: 0/0
  4000 ;; Data sizes:     COMMON   BANK0   BANK1   BANK2
  4001 ;;      Params:         0       0       0       0
  4002 ;;      Locals:         0       0       0       0
  4003 ;;      Temps:          0       0       0       0
  4004 ;;      Totals:         0       0       0       0
  4005 ;;Total ram usage:        0 bytes
  4006 ;; Hardware stack levels used: 1
  4007 ;; Hardware stack levels required when called: 4
  4008 ;; This function calls:
  4009 ;;		_sleep_us_thread1
  4010 ;; This function is called by:
  4011 ;;		_isr
  4012 ;; This function uses a non-reentrant model
  4013 ;;
  4014                           
  4015     0AF3                     _board_pwr_pulse:	
  4016                           ;psect for function _board_pwr_pulse
  4017                           
  4018     0AF3                     i1l2726:	
  4019                           ;incstack = 0
  4020 ;; hardware stack exceeded
  4021                           ; Regs used in _board_pwr_pulse: [wreg+status,2+status,0+btemp+1+pclath+cstack]
  4022                           
  4023                           
  4024                           ;task3/adjust_power.c: 27:     if (power_lvl == 2) {
  4025     0AF3  3002               	movlw	2
  4026     0AF4  1683               	bsf	3,5	;RP0=1, select bank1
  4027     0AF5  1303               	bcf	3,6	;RP1=0, select bank1
  4028     0AF6  0655               	xorwf	_power_lvl^(0+128),w	;volatile
  4029     0AF7  0456               	iorwf	(_power_lvl+1)^(0+128),w	;volatile
  4030     0AF8  1D03               	btfss	3,2
  4031     0AF9  2AFB               	goto	u364_21
  4032     0AFA  2AFC               	goto	u364_20
  4033     0AFB                     u364_21:
  4034     0AFB  2AFD               	goto	i1l159
  4035     0AFC                     u364_20:
  4036     0AFC  2B0C               	goto	i1l160
  4037     0AFD                     i1l159:	
  4038                           ;task3/adjust_power.c: 29:     }
  4039                           
  4040                           
  4041                           ;task3/adjust_power.c: 37:     PORTCbits.RC7 = 1;
  4042     0AFD  1283               	bcf	3,5	;RP0=0, select bank0
  4043     0AFE  1303               	bcf	3,6	;RP1=0, select bank0
  4044     0AFF  1787               	bsf	7,7	;volatile
  4045     0B00                     i1l2730:
  4046                           
  4047                           ;task3/adjust_power.c: 38:     sleep_us_thread1(20);
  4048     0B00  3014               	movlw	20
  4049     0B01  1683               	bsf	3,5	;RP0=1, select bank1
  4050     0B02  1303               	bcf	3,6	;RP1=0, select bank1
  4051     0B03  00B6               	movwf	sleep_us_thread1@time^(0+128)
  4052     0B04  3000               	movlw	0
  4053     0B05  00B7               	movwf	(sleep_us_thread1@time^(0+128)+1)
  4054     0B06  118A  278A  158A   	fcall	_sleep_us_thread1
  4055     0B09                     i1l2732:
  4056                           
  4057                           ;task3/adjust_power.c: 39:     PORTCbits.RC7 = 0;
  4058     0B09  1283               	bcf	3,5	;RP0=0, select bank0
  4059     0B0A  1303               	bcf	3,6	;RP1=0, select bank0
  4060     0B0B  1387               	bcf	7,7	;volatile
  4061     0B0C                     i1l160:
  4062     0B0C  0008               	return
  4063     0B0D                     __end_of_board_pwr_pulse:
  4064                           
  4065                           	psect	text35
  4066     078A                     __ptext35:	
  4067 ;; *************** function _sleep_us_thread1 *****************
  4068 ;; Defined at:
  4069 ;;		line 27 in file "general.c"
  4070 ;; Parameters:    Size  Location     Type
  4071 ;;  time            2   22[BANK1 ] unsigned int 
  4072 ;; Auto vars:     Size  Location     Type
  4073 ;;  timer_counts    4   28[BANK1 ] unsigned long 
  4074 ;; Return value:  Size  Location     Type
  4075 ;;                  1    wreg      void 
  4076 ;; Registers used:
  4077 ;;		wreg, status,2, status,0, btemp+1, pclath, cstack
  4078 ;; Tracked objects:
  4079 ;;		On entry : 0/0
  4080 ;;		On exit  : 0/0
  4081 ;;		Unchanged: 0/0
  4082 ;; Data sizes:     COMMON   BANK0   BANK1   BANK2
  4083 ;;      Params:         0       0       2       0
  4084 ;;      Locals:         0       0       4       0
  4085 ;;      Temps:          0       0       4       0
  4086 ;;      Totals:         0       0      10       0
  4087 ;;Total ram usage:       10 bytes
  4088 ;; Hardware stack levels used: 1
  4089 ;; Hardware stack levels required when called: 3
  4090 ;; This function calls:
  4091 ;;		___xxtofl
  4092 ;;		_calculate_timer_counts
  4093 ;; This function is called by:
  4094 ;;		_board_pwr_pulse
  4095 ;; This function uses a non-reentrant model
  4096 ;;
  4097                           
  4098     078A                     _sleep_us_thread1:	
  4099                           ;psect for function _sleep_us_thread1
  4100                           
  4101     078A                     i1l2616:	
  4102                           ;incstack = 0
  4103 ;; hardware stack exceeded
  4104                           ; Regs used in _sleep_us_thread1: [wreg+status,2+status,0+btemp+1+pclath+cstack]
  4105                           
  4106                           
  4107                           ;general.c: 28:     if (TMR1H || TMR1L) {
  4108     078A  1283               	bcf	3,5	;RP0=0, select bank0
  4109     078B  1303               	bcf	3,6	;RP1=0, select bank0
  4110     078C  080F               	movf	15,w	;volatile
  4111     078D  1D03               	btfss	3,2
  4112     078E  2F90               	goto	u348_21
  4113     078F  2F91               	goto	u348_20
  4114     0790                     u348_21:
  4115     0790  2FF7               	goto	i1l261
  4116     0791                     u348_20:
  4117     0791                     i1l2618:
  4118     0791  080E               	movf	14,w	;volatile
  4119     0792  1903               	btfsc	3,2
  4120     0793  2F95               	goto	u349_21
  4121     0794  2F96               	goto	u349_20
  4122     0795                     u349_21:
  4123     0795  2F97               	goto	i1l2620
  4124     0796                     u349_20:
  4125     0796  2FF7               	goto	i1l261
  4126     0797                     i1l2620:
  4127                           
  4128                           ;general.c: 32:     timer1_running = 1;
  4129     0797  3001               	movlw	1
  4130     0798  1683               	bsf	3,5	;RP0=1, select bank1
  4131     0799  1303               	bcf	3,6	;RP1=0, select bank1
  4132     079A  00D3               	movwf	_timer1_running^(0+128)
  4133     079B  3000               	movlw	0
  4134     079C  00D4               	movwf	(_timer1_running^(0+128)+1)
  4135     079D                     i1l2622:
  4136                           
  4137                           ;general.c: 34:     unsigned long timer_counts = calculate_timer_counts(time);
  4138     079D  0836               	movf	sleep_us_thread1@time^(0+128),w
  4139     079E  1283               	bcf	3,5	;RP0=0, select bank0
  4140     079F  1303               	bcf	3,6	;RP1=0, select bank0
  4141     07A0  00A0               	movwf	___xxtofl@val
  4142     07A1  1683               	bsf	3,5	;RP0=1, select bank1
  4143     07A2  1303               	bcf	3,6	;RP1=0, select bank1
  4144     07A3  0837               	movf	(sleep_us_thread1@time+1)^(0+128),w
  4145     07A4  1283               	bcf	3,5	;RP0=0, select bank0
  4146     07A5  1303               	bcf	3,6	;RP1=0, select bank0
  4147     07A6  00A1               	movwf	___xxtofl@val+1
  4148     07A7  01A2               	clrf	___xxtofl@val+2
  4149     07A8  01A3               	clrf	___xxtofl@val+3
  4150     07A9  3000               	movlw	0
  4151     07AA  158A  264F  118A   	fcall	___xxtofl
  4152     07AD  1283               	bcf	3,5	;RP0=0, select bank0
  4153     07AE  1303               	bcf	3,6	;RP1=0, select bank0
  4154     07AF  0823               	movf	?___xxtofl+3,w
  4155     07B0  1683               	bsf	3,5	;RP0=1, select bank1
  4156     07B1  1303               	bcf	3,6	;RP1=0, select bank1
  4157     07B2  00A9               	movwf	(calculate_timer_counts@us_to_wait+3)^(0+128)
  4158     07B3  1283               	bcf	3,5	;RP0=0, select bank0
  4159     07B4  1303               	bcf	3,6	;RP1=0, select bank0
  4160     07B5  0822               	movf	?___xxtofl+2,w
  4161     07B6  1683               	bsf	3,5	;RP0=1, select bank1
  4162     07B7  1303               	bcf	3,6	;RP1=0, select bank1
  4163     07B8  00A8               	movwf	(calculate_timer_counts@us_to_wait+2)^(0+128)
  4164     07B9  1283               	bcf	3,5	;RP0=0, select bank0
  4165     07BA  1303               	bcf	3,6	;RP1=0, select bank0
  4166     07BB  0821               	movf	?___xxtofl+1,w
  4167     07BC  1683               	bsf	3,5	;RP0=1, select bank1
  4168     07BD  1303               	bcf	3,6	;RP1=0, select bank1
  4169     07BE  00A7               	movwf	(calculate_timer_counts@us_to_wait+1)^(0+128)
  4170     07BF  1283               	bcf	3,5	;RP0=0, select bank0
  4171     07C0  1303               	bcf	3,6	;RP1=0, select bank0
  4172     07C1  0820               	movf	?___xxtofl,w
  4173     07C2  1683               	bsf	3,5	;RP0=1, select bank1
  4174     07C3  1303               	bcf	3,6	;RP1=0, select bank1
  4175     07C4  00A6               	movwf	calculate_timer_counts@us_to_wait^(0+128)
  4176     07C5  158A  2709  118A   	fcall	_calculate_timer_counts
  4177     07C8  1683               	bsf	3,5	;RP0=1, select bank1
  4178     07C9  1303               	bcf	3,6	;RP1=0, select bank1
  4179     07CA  0829               	movf	(?_calculate_timer_counts+3)^(0+128),w
  4180     07CB  00BF               	movwf	(sleep_us_thread1@timer_counts+3)^(0+128)
  4181     07CC  0828               	movf	(?_calculate_timer_counts+2)^(0+128),w
  4182     07CD  00BE               	movwf	(sleep_us_thread1@timer_counts+2)^(0+128)
  4183     07CE  0827               	movf	(?_calculate_timer_counts+1)^(0+128),w
  4184     07CF  00BD               	movwf	(sleep_us_thread1@timer_counts+1)^(0+128)
  4185     07D0  0826               	movf	?_calculate_timer_counts^(0+128),w
  4186     07D1  00BC               	movwf	sleep_us_thread1@timer_counts^(0+128)
  4187     07D2                     i1l2624:
  4188                           
  4189                           ;general.c: 35:     TMR1H = (timer_counts >> 8) & 0xFF;
  4190     07D2  083C               	movf	sleep_us_thread1@timer_counts^(0+128),w
  4191     07D3  00B8               	movwf	??_sleep_us_thread1^(0+128)
  4192     07D4  083D               	movf	(sleep_us_thread1@timer_counts+1)^(0+128),w
  4193     07D5  00B9               	movwf	(??_sleep_us_thread1^(0+128)+1)
  4194     07D6  083E               	movf	(sleep_us_thread1@timer_counts+2)^(0+128),w
  4195     07D7  00BA               	movwf	(??_sleep_us_thread1^(0+128)+2)
  4196     07D8  083F               	movf	(sleep_us_thread1@timer_counts+3)^(0+128),w
  4197     07D9  00BB               	movwf	(??_sleep_us_thread1^(0+128)+3)
  4198     07DA  3008               	movlw	8
  4199     07DB                     u350_25:
  4200     07DB  1003               	clrc
  4201     07DC  0CBB               	rrf	(??_sleep_us_thread1^(0+128)+3),f
  4202     07DD  0CBA               	rrf	(??_sleep_us_thread1^(0+128)+2),f
  4203     07DE  0CB9               	rrf	(??_sleep_us_thread1^(0+128)+1),f
  4204     07DF  0CB8               	rrf	??_sleep_us_thread1^(0+128),f
  4205     07E0                     u350_20:
  4206     07E0  3EFF               	addlw	-1
  4207     07E1  1D03               	skipz
  4208     07E2  2FDB               	goto	u350_25
  4209     07E3  0838               	movf	??_sleep_us_thread1^(0+128),w
  4210     07E4  1283               	bcf	3,5	;RP0=0, select bank0
  4211     07E5  1303               	bcf	3,6	;RP1=0, select bank0
  4212     07E6  008F               	movwf	15	;volatile
  4213     07E7                     i1l2626:
  4214                           
  4215                           ;general.c: 36:     TMR1L = timer_counts & 0xFF;
  4216     07E7  1683               	bsf	3,5	;RP0=1, select bank1
  4217     07E8  1303               	bcf	3,6	;RP1=0, select bank1
  4218     07E9  083C               	movf	sleep_us_thread1@timer_counts^(0+128),w
  4219     07EA  1283               	bcf	3,5	;RP0=0, select bank0
  4220     07EB  1303               	bcf	3,6	;RP1=0, select bank0
  4221     07EC  008E               	movwf	14	;volatile
  4222     07ED                     i1l2628:
  4223                           
  4224                           ;general.c: 37:     INTCONbits.GIE = 1;
  4225     07ED  178B               	bsf	11,7	;volatile
  4226     07EE                     i1l2630:
  4227                           
  4228                           ;general.c: 38:     T1CONbits.TMR1ON = 1;
  4229     07EE  1410               	bsf	16,0	;volatile
  4230     07EF                     i1l2632:	
  4231                           ;general.c: 40:     while (timer1_running != 0) {
  4232                           
  4233                           
  4234                           ;general.c: 40:     while (timer1_running != 0) {
  4235     07EF  1683               	bsf	3,5	;RP0=1, select bank1
  4236     07F0  1303               	bcf	3,6	;RP1=0, select bank1
  4237     07F1  0853               	movf	_timer1_running^(0+128),w
  4238     07F2  0454               	iorwf	(_timer1_running+1)^(0+128),w
  4239     07F3  1D03               	btfss	3,2
  4240     07F4  2FF6               	goto	u351_21
  4241     07F5  2FF7               	goto	u351_20
  4242     07F6                     u351_21:
  4243     07F6  2FEF               	goto	i1l2632
  4244     07F7                     u351_20:
  4245     07F7                     i1l261:
  4246     07F7  0008               	return
  4247     07F8                     __end_of_sleep_us_thread1:
  4248                           
  4249                           	psect	text36
  4250     0F09                     __ptext36:	
  4251 ;; *************** function _calculate_timer_counts *****************
  4252 ;; Defined at:
  4253 ;;		line 8 in file "general.c"
  4254 ;; Parameters:    Size  Location     Type
  4255 ;;  us_to_wait      4    6[BANK1 ] float 
  4256 ;; Auto vars:     Size  Location     Type
  4257 ;;  counts_to_wa    4   18[BANK1 ] unsigned long 
  4258 ;;  timer_counts    4   14[BANK1 ] float 
  4259 ;;  secs_to_wait    4   10[BANK1 ] float 
  4260 ;; Return value:  Size  Location     Type
  4261 ;;                  4    6[BANK1 ] unsigned long 
  4262 ;; Registers used:
  4263 ;;		wreg, status,2, status,0, btemp+1, pclath, cstack
  4264 ;; Tracked objects:
  4265 ;;		On entry : 0/0
  4266 ;;		On exit  : 0/0
  4267 ;;		Unchanged: 0/0
  4268 ;; Data sizes:     COMMON   BANK0   BANK1   BANK2
  4269 ;;      Params:         0       0       4       0
  4270 ;;      Locals:         0       0      12       0
  4271 ;;      Temps:          0       0       0       0
  4272 ;;      Totals:         0       0      16       0
  4273 ;;Total ram usage:       16 bytes
  4274 ;; Hardware stack levels used: 1
  4275 ;; Hardware stack levels required when called: 2
  4276 ;; This function calls:
  4277 ;;		___fladd
  4278 ;;		___fldiv
  4279 ;;		___flmul
  4280 ;;		___flsub
  4281 ;;		___fltol
  4282 ;; This function is called by:
  4283 ;;		_sleep_us_thread1
  4284 ;; This function uses a non-reentrant model
  4285 ;;
  4286                           
  4287     0F09                     _calculate_timer_counts:	
  4288                           ;psect for function _calculate_timer_counts
  4289                           
  4290     0F09                     i1l2438:	
  4291                           ;incstack = 0
  4292 ;; hardware stack exceeded
  4293                           ; Regs used in _calculate_timer_counts: [wreg+status,2+status,0+btemp+1+pclath+cstack]
  4294                           
  4295                           
  4296                           ;general.c: 9:    float secs_to_wait = us_to_wait / 10000000;
  4297     0F09  304B               	movlw	75
  4298     0F0A  1283               	bcf	3,5	;RP0=0, select bank0
  4299     0F0B  1303               	bcf	3,6	;RP1=0, select bank0
  4300     0F0C  00B8               	movwf	___fldiv@a+3
  4301     0F0D  3018               	movlw	24
  4302     0F0E  00B7               	movwf	___fldiv@a+2
  4303     0F0F  3096               	movlw	150
  4304     0F10  00B6               	movwf	___fldiv@a+1
  4305     0F11  3080               	movlw	128
  4306     0F12  00B5               	movwf	___fldiv@a
  4307     0F13  1683               	bsf	3,5	;RP0=1, select bank1
  4308     0F14  1303               	bcf	3,6	;RP1=0, select bank1
  4309     0F15  0829               	movf	(calculate_timer_counts@us_to_wait+3)^(0+128),w
  4310     0F16  1283               	bcf	3,5	;RP0=0, select bank0
  4311     0F17  1303               	bcf	3,6	;RP1=0, select bank0
  4312     0F18  00BC               	movwf	___fldiv@b+3
  4313     0F19  1683               	bsf	3,5	;RP0=1, select bank1
  4314     0F1A  1303               	bcf	3,6	;RP1=0, select bank1
  4315     0F1B  0828               	movf	(calculate_timer_counts@us_to_wait+2)^(0+128),w
  4316     0F1C  1283               	bcf	3,5	;RP0=0, select bank0
  4317     0F1D  1303               	bcf	3,6	;RP1=0, select bank0
  4318     0F1E  00BB               	movwf	___fldiv@b+2
  4319     0F1F  1683               	bsf	3,5	;RP0=1, select bank1
  4320     0F20  1303               	bcf	3,6	;RP1=0, select bank1
  4321     0F21  0827               	movf	(calculate_timer_counts@us_to_wait+1)^(0+128),w
  4322     0F22  1283               	bcf	3,5	;RP0=0, select bank0
  4323     0F23  1303               	bcf	3,6	;RP1=0, select bank0
  4324     0F24  00BA               	movwf	___fldiv@b+1
  4325     0F25  1683               	bsf	3,5	;RP0=1, select bank1
  4326     0F26  1303               	bcf	3,6	;RP1=0, select bank1
  4327     0F27  0826               	movf	calculate_timer_counts@us_to_wait^(0+128),w
  4328     0F28  1283               	bcf	3,5	;RP0=0, select bank0
  4329     0F29  1303               	bcf	3,6	;RP1=0, select bank0
  4330     0F2A  00B9               	movwf	___fldiv@b
  4331     0F2B  118A  25BB  158A   	fcall	___fldiv
  4332     0F2E  1283               	bcf	3,5	;RP0=0, select bank0
  4333     0F2F  1303               	bcf	3,6	;RP1=0, select bank0
  4334     0F30  0838               	movf	?___fldiv+3,w
  4335     0F31  1683               	bsf	3,5	;RP0=1, select bank1
  4336     0F32  1303               	bcf	3,6	;RP1=0, select bank1
  4337     0F33  00AD               	movwf	(calculate_timer_counts@secs_to_wait+3)^(0+128)
  4338     0F34  1283               	bcf	3,5	;RP0=0, select bank0
  4339     0F35  1303               	bcf	3,6	;RP1=0, select bank0
  4340     0F36  0837               	movf	?___fldiv+2,w
  4341     0F37  1683               	bsf	3,5	;RP0=1, select bank1
  4342     0F38  1303               	bcf	3,6	;RP1=0, select bank1
  4343     0F39  00AC               	movwf	(calculate_timer_counts@secs_to_wait+2)^(0+128)
  4344     0F3A  1283               	bcf	3,5	;RP0=0, select bank0
  4345     0F3B  1303               	bcf	3,6	;RP1=0, select bank0
  4346     0F3C  0836               	movf	?___fldiv+1,w
  4347     0F3D  1683               	bsf	3,5	;RP0=1, select bank1
  4348     0F3E  1303               	bcf	3,6	;RP1=0, select bank1
  4349     0F3F  00AB               	movwf	(calculate_timer_counts@secs_to_wait+1)^(0+128)
  4350     0F40  1283               	bcf	3,5	;RP0=0, select bank0
  4351     0F41  1303               	bcf	3,6	;RP1=0, select bank0
  4352     0F42  0835               	movf	?___fldiv,w
  4353     0F43  1683               	bsf	3,5	;RP0=1, select bank1
  4354     0F44  1303               	bcf	3,6	;RP1=0, select bank1
  4355     0F45  00AA               	movwf	calculate_timer_counts@secs_to_wait^(0+128)
  4356                           
  4357                           ;general.c: 11:     float timer_counts = (float)((4000000UL))/(secs_to_wait * 1) - 1;
  4358     0F46  30BF               	movlw	191
  4359     0F47  1283               	bcf	3,5	;RP0=0, select bank0
  4360     0F48  1303               	bcf	3,6	;RP1=0, select bank0
  4361     0F49  00D2               	movwf	___fladd@b+3
  4362     0F4A  3080               	movlw	128
  4363     0F4B  00D1               	movwf	___fladd@b+2
  4364     0F4C  3000               	movlw	0
  4365     0F4D  00D0               	movwf	___fladd@b+1
  4366     0F4E  3000               	movlw	0
  4367     0F4F  00CF               	movwf	___fladd@b
  4368     0F50  303F               	movlw	63
  4369     0F51  00A3               	movwf	___flmul@b+3
  4370     0F52  3080               	movlw	128
  4371     0F53  00A2               	movwf	___flmul@b+2
  4372     0F54  3000               	movlw	0
  4373     0F55  00A1               	movwf	___flmul@b+1
  4374     0F56  3000               	movlw	0
  4375     0F57  00A0               	movwf	___flmul@b
  4376     0F58  1683               	bsf	3,5	;RP0=1, select bank1
  4377     0F59  1303               	bcf	3,6	;RP1=0, select bank1
  4378     0F5A  082D               	movf	(calculate_timer_counts@secs_to_wait+3)^(0+128),w
  4379     0F5B  1283               	bcf	3,5	;RP0=0, select bank0
  4380     0F5C  1303               	bcf	3,6	;RP1=0, select bank0
  4381     0F5D  00A7               	movwf	___flmul@a+3
  4382     0F5E  1683               	bsf	3,5	;RP0=1, select bank1
  4383     0F5F  1303               	bcf	3,6	;RP1=0, select bank1
  4384     0F60  082C               	movf	(calculate_timer_counts@secs_to_wait+2)^(0+128),w
  4385     0F61  1283               	bcf	3,5	;RP0=0, select bank0
  4386     0F62  1303               	bcf	3,6	;RP1=0, select bank0
  4387     0F63  00A6               	movwf	___flmul@a+2
  4388     0F64  1683               	bsf	3,5	;RP0=1, select bank1
  4389     0F65  1303               	bcf	3,6	;RP1=0, select bank1
  4390     0F66  082B               	movf	(calculate_timer_counts@secs_to_wait+1)^(0+128),w
  4391     0F67  1283               	bcf	3,5	;RP0=0, select bank0
  4392     0F68  1303               	bcf	3,6	;RP1=0, select bank0
  4393     0F69  00A5               	movwf	___flmul@a+1
  4394     0F6A  1683               	bsf	3,5	;RP0=1, select bank1
  4395     0F6B  1303               	bcf	3,6	;RP1=0, select bank1
  4396     0F6C  082A               	movf	calculate_timer_counts@secs_to_wait^(0+128),w
  4397     0F6D  1283               	bcf	3,5	;RP0=0, select bank0
  4398     0F6E  1303               	bcf	3,6	;RP1=0, select bank0
  4399     0F6F  00A4               	movwf	___flmul@a
  4400     0F70  118A  2030  158A   	fcall	___flmul
  4401     0F73  1283               	bcf	3,5	;RP0=0, select bank0
  4402     0F74  1303               	bcf	3,6	;RP1=0, select bank0
  4403     0F75  0823               	movf	?___flmul+3,w
  4404     0F76  00B8               	movwf	___fldiv@a+3
  4405     0F77  0822               	movf	?___flmul+2,w
  4406     0F78  00B7               	movwf	___fldiv@a+2
  4407     0F79  0821               	movf	?___flmul+1,w
  4408     0F7A  00B6               	movwf	___fldiv@a+1
  4409     0F7B  0820               	movf	?___flmul,w
  4410     0F7C  00B5               	movwf	___fldiv@a
  4411     0F7D  304A               	movlw	74
  4412     0F7E  00BC               	movwf	___fldiv@b+3
  4413     0F7F  3074               	movlw	116
  4414     0F80  00BB               	movwf	___fldiv@b+2
  4415     0F81  3024               	movlw	36
  4416     0F82  00BA               	movwf	___fldiv@b+1
  4417     0F83  3000               	movlw	0
  4418     0F84  00B9               	movwf	___fldiv@b
  4419     0F85  118A  25BB  158A   	fcall	___fldiv
  4420     0F88  1283               	bcf	3,5	;RP0=0, select bank0
  4421     0F89  1303               	bcf	3,6	;RP1=0, select bank0
  4422     0F8A  0838               	movf	?___fldiv+3,w
  4423     0F8B  00D6               	movwf	___fladd@a+3
  4424     0F8C  0837               	movf	?___fldiv+2,w
  4425     0F8D  00D5               	movwf	___fladd@a+2
  4426     0F8E  0836               	movf	?___fldiv+1,w
  4427     0F8F  00D4               	movwf	___fladd@a+1
  4428     0F90  0835               	movf	?___fldiv,w
  4429     0F91  00D3               	movwf	___fladd@a
  4430     0F92  118A  2363  158A   	fcall	___fladd
  4431     0F95  1283               	bcf	3,5	;RP0=0, select bank0
  4432     0F96  1303               	bcf	3,6	;RP1=0, select bank0
  4433     0F97  0852               	movf	?___fladd+3,w
  4434     0F98  1683               	bsf	3,5	;RP0=1, select bank1
  4435     0F99  1303               	bcf	3,6	;RP1=0, select bank1
  4436     0F9A  00B1               	movwf	(calculate_timer_counts@timer_counts+3)^(0+128)
  4437     0F9B  1283               	bcf	3,5	;RP0=0, select bank0
  4438     0F9C  1303               	bcf	3,6	;RP1=0, select bank0
  4439     0F9D  0851               	movf	?___fladd+2,w
  4440     0F9E  1683               	bsf	3,5	;RP0=1, select bank1
  4441     0F9F  1303               	bcf	3,6	;RP1=0, select bank1
  4442     0FA0  00B0               	movwf	(calculate_timer_counts@timer_counts+2)^(0+128)
  4443     0FA1  1283               	bcf	3,5	;RP0=0, select bank0
  4444     0FA2  1303               	bcf	3,6	;RP1=0, select bank0
  4445     0FA3  0850               	movf	?___fladd+1,w
  4446     0FA4  1683               	bsf	3,5	;RP0=1, select bank1
  4447     0FA5  1303               	bcf	3,6	;RP1=0, select bank1
  4448     0FA6  00AF               	movwf	(calculate_timer_counts@timer_counts+1)^(0+128)
  4449     0FA7  1283               	bcf	3,5	;RP0=0, select bank0
  4450     0FA8  1303               	bcf	3,6	;RP1=0, select bank0
  4451     0FA9  084F               	movf	?___fladd,w
  4452     0FAA  1683               	bsf	3,5	;RP0=1, select bank1
  4453     0FAB  1303               	bcf	3,6	;RP1=0, select bank1
  4454     0FAC  00AE               	movwf	calculate_timer_counts@timer_counts^(0+128)
  4455                           
  4456                           ;general.c: 12:     unsigned long counts_to_wait = (unsigned long)(0xFFFF - timer_counts
      +                          );
  4457     0FAD  3047               	movlw	71
  4458     0FAE  1283               	bcf	3,5	;RP0=0, select bank0
  4459     0FAF  1303               	bcf	3,6	;RP1=0, select bank0
  4460     0FB0  00EA               	movwf	___flsub@b+3
  4461     0FB1  307F               	movlw	127
  4462     0FB2  00E9               	movwf	___flsub@b+2
  4463     0FB3  30FF               	movlw	255
  4464     0FB4  00E8               	movwf	___flsub@b+1
  4465     0FB5  3000               	movlw	0
  4466     0FB6  00E7               	movwf	___flsub@b
  4467     0FB7  1683               	bsf	3,5	;RP0=1, select bank1
  4468     0FB8  1303               	bcf	3,6	;RP1=0, select bank1
  4469     0FB9  0831               	movf	(calculate_timer_counts@timer_counts+3)^(0+128),w
  4470     0FBA  1283               	bcf	3,5	;RP0=0, select bank0
  4471     0FBB  1303               	bcf	3,6	;RP1=0, select bank0
  4472     0FBC  00E6               	movwf	___flsub@a+3
  4473     0FBD  1683               	bsf	3,5	;RP0=1, select bank1
  4474     0FBE  1303               	bcf	3,6	;RP1=0, select bank1
  4475     0FBF  0830               	movf	(calculate_timer_counts@timer_counts+2)^(0+128),w
  4476     0FC0  1283               	bcf	3,5	;RP0=0, select bank0
  4477     0FC1  1303               	bcf	3,6	;RP1=0, select bank0
  4478     0FC2  00E5               	movwf	___flsub@a+2
  4479     0FC3  1683               	bsf	3,5	;RP0=1, select bank1
  4480     0FC4  1303               	bcf	3,6	;RP1=0, select bank1
  4481     0FC5  082F               	movf	(calculate_timer_counts@timer_counts+1)^(0+128),w
  4482     0FC6  1283               	bcf	3,5	;RP0=0, select bank0
  4483     0FC7  1303               	bcf	3,6	;RP1=0, select bank0
  4484     0FC8  00E4               	movwf	___flsub@a+1
  4485     0FC9  1683               	bsf	3,5	;RP0=1, select bank1
  4486     0FCA  1303               	bcf	3,6	;RP1=0, select bank1
  4487     0FCB  082E               	movf	calculate_timer_counts@timer_counts^(0+128),w
  4488     0FCC  1283               	bcf	3,5	;RP0=0, select bank0
  4489     0FCD  1303               	bcf	3,6	;RP1=0, select bank0
  4490     0FCE  00E3               	movwf	___flsub@a
  4491     0FCF  158A  234B  158A   	fcall	___flsub
  4492     0FD2  1283               	bcf	3,5	;RP0=0, select bank0
  4493     0FD3  1303               	bcf	3,6	;RP1=0, select bank0
  4494     0FD4  0866               	movf	?___flsub+3,w
  4495     0FD5  00EE               	movwf	___fltol@f1+3
  4496     0FD6  0865               	movf	?___flsub+2,w
  4497     0FD7  00ED               	movwf	___fltol@f1+2
  4498     0FD8  0864               	movf	?___flsub+1,w
  4499     0FD9  00EC               	movwf	___fltol@f1+1
  4500     0FDA  0863               	movf	?___flsub,w
  4501     0FDB  00EB               	movwf	___fltol@f1
  4502     0FDC  158A  25B5  158A   	fcall	___fltol
  4503     0FDF  1283               	bcf	3,5	;RP0=0, select bank0
  4504     0FE0  1303               	bcf	3,6	;RP1=0, select bank0
  4505     0FE1  086E               	movf	?___fltol+3,w
  4506     0FE2  1683               	bsf	3,5	;RP0=1, select bank1
  4507     0FE3  1303               	bcf	3,6	;RP1=0, select bank1
  4508     0FE4  00B5               	movwf	(calculate_timer_counts@counts_to_wait+3)^(0+128)
  4509     0FE5  1283               	bcf	3,5	;RP0=0, select bank0
  4510     0FE6  1303               	bcf	3,6	;RP1=0, select bank0
  4511     0FE7  086D               	movf	?___fltol+2,w
  4512     0FE8  1683               	bsf	3,5	;RP0=1, select bank1
  4513     0FE9  1303               	bcf	3,6	;RP1=0, select bank1
  4514     0FEA  00B4               	movwf	(calculate_timer_counts@counts_to_wait+2)^(0+128)
  4515     0FEB  1283               	bcf	3,5	;RP0=0, select bank0
  4516     0FEC  1303               	bcf	3,6	;RP1=0, select bank0
  4517     0FED  086C               	movf	?___fltol+1,w
  4518     0FEE  1683               	bsf	3,5	;RP0=1, select bank1
  4519     0FEF  1303               	bcf	3,6	;RP1=0, select bank1
  4520     0FF0  00B3               	movwf	(calculate_timer_counts@counts_to_wait+1)^(0+128)
  4521     0FF1  1283               	bcf	3,5	;RP0=0, select bank0
  4522     0FF2  1303               	bcf	3,6	;RP1=0, select bank0
  4523     0FF3  086B               	movf	?___fltol,w
  4524     0FF4  1683               	bsf	3,5	;RP0=1, select bank1
  4525     0FF5  1303               	bcf	3,6	;RP1=0, select bank1
  4526     0FF6  00B2               	movwf	calculate_timer_counts@counts_to_wait^(0+128)
  4527     0FF7                     i1l2440:
  4528                           
  4529                           ;general.c: 13:     return counts_to_wait;
  4530     0FF7  0835               	movf	(calculate_timer_counts@counts_to_wait+3)^(0+128),w
  4531     0FF8  00A9               	movwf	(?_calculate_timer_counts+3)^(0+128)
  4532     0FF9  0834               	movf	(calculate_timer_counts@counts_to_wait+2)^(0+128),w
  4533     0FFA  00A8               	movwf	(?_calculate_timer_counts+2)^(0+128)
  4534     0FFB  0833               	movf	(calculate_timer_counts@counts_to_wait+1)^(0+128),w
  4535     0FFC  00A7               	movwf	(?_calculate_timer_counts+1)^(0+128)
  4536     0FFD  0832               	movf	calculate_timer_counts@counts_to_wait^(0+128),w
  4537     0FFE  00A6               	movwf	?_calculate_timer_counts^(0+128)
  4538     0FFF                     i1l252:
  4539     0FFF  0008               	return
  4540     1000                     __end_of_calculate_timer_counts:
  4541                           
  4542                           	psect	text37
  4543     0DB5                     __ptext37:	
  4544 ;; *************** function ___fltol *****************
  4545 ;; Defined at:
  4546 ;;		line 43 in file "C:\Program Files\Microchip\xc8\v2.45\pic\sources\c99\common\fltol.c"
  4547 ;; Parameters:    Size  Location     Type
  4548 ;;  f1              4   75[BANK0 ] unsigned long 
  4549 ;; Auto vars:     Size  Location     Type
  4550 ;;  exp1            1    5[BANK1 ] unsigned char 
  4551 ;;  sign1           1    4[BANK1 ] unsigned char 
  4552 ;; Return value:  Size  Location     Type
  4553 ;;                  4   75[BANK0 ] long 
  4554 ;; Registers used:
  4555 ;;		wreg, status,2, status,0, btemp+1
  4556 ;; Tracked objects:
  4557 ;;		On entry : 0/0
  4558 ;;		On exit  : 0/0
  4559 ;;		Unchanged: 0/0
  4560 ;; Data sizes:     COMMON   BANK0   BANK1   BANK2
  4561 ;;      Params:         0       4       0       0
  4562 ;;      Locals:         0       0       2       0
  4563 ;;      Temps:          0       0       4       0
  4564 ;;      Totals:         0       4       6       0
  4565 ;;Total ram usage:       10 bytes
  4566 ;; Hardware stack levels used: 1
  4567 ;; This function calls:
  4568 ;;		Nothing
  4569 ;; This function is called by:
  4570 ;;		_calculate_timer_counts
  4571 ;; This function uses a non-reentrant model
  4572 ;;
  4573                           
  4574     0DB5                     ___fltol:	
  4575                           ;psect for function ___fltol
  4576                           
  4577     0DB5                     i1l2098:	
  4578                           ;incstack = 0
  4579                           ; Regs used in ___fltol: [wreg+status,2+status,0+btemp+1]
  4580                           
  4581     0DB5  1003               	clrc
  4582     0DB6  1283               	bcf	3,5	;RP0=0, select bank0
  4583     0DB7  1303               	bcf	3,6	;RP1=0, select bank0
  4584     0DB8  0D6D               	rlf	___fltol@f1+2,w
  4585     0DB9  0D6E               	rlf	___fltol@f1+3,w
  4586     0DBA  1683               	bsf	3,5	;RP0=1, select bank1
  4587     0DBB  1303               	bcf	3,6	;RP1=0, select bank1
  4588     0DBC  00A5               	movwf	___fltol@exp1^(0+128)
  4589     0DBD  0825               	movf	___fltol@exp1^(0+128),w
  4590     0DBE  1D03               	btfss	3,2
  4591     0DBF  2DC1               	goto	u237_21
  4592     0DC0  2DC2               	goto	u237_20
  4593     0DC1                     u237_21:
  4594     0DC1  2DCD               	goto	i1l2104
  4595     0DC2                     u237_20:
  4596     0DC2                     i1l2100:
  4597     0DC2  3000               	movlw	0
  4598     0DC3  1283               	bcf	3,5	;RP0=0, select bank0
  4599     0DC4  1303               	bcf	3,6	;RP1=0, select bank0
  4600     0DC5  00EE               	movwf	?___fltol+3
  4601     0DC6  3000               	movlw	0
  4602     0DC7  00ED               	movwf	?___fltol+2
  4603     0DC8  3000               	movlw	0
  4604     0DC9  00EC               	movwf	?___fltol+1
  4605     0DCA  3000               	movlw	0
  4606     0DCB  00EB               	movwf	?___fltol
  4607     0DCC  2E4E               	goto	i1l560
  4608     0DCD                     i1l2104:
  4609     0DCD  1283               	bcf	3,5	;RP0=0, select bank0
  4610     0DCE  1303               	bcf	3,6	;RP1=0, select bank0
  4611     0DCF  086B               	movf	___fltol@f1,w
  4612     0DD0  1683               	bsf	3,5	;RP0=1, select bank1
  4613     0DD1  1303               	bcf	3,6	;RP1=0, select bank1
  4614     0DD2  00A0               	movwf	??___fltol^(0+128)
  4615     0DD3  1283               	bcf	3,5	;RP0=0, select bank0
  4616     0DD4  1303               	bcf	3,6	;RP1=0, select bank0
  4617     0DD5  086C               	movf	___fltol@f1+1,w
  4618     0DD6  1683               	bsf	3,5	;RP0=1, select bank1
  4619     0DD7  1303               	bcf	3,6	;RP1=0, select bank1
  4620     0DD8  00A1               	movwf	(??___fltol^(0+128)+1)
  4621     0DD9  1283               	bcf	3,5	;RP0=0, select bank0
  4622     0DDA  1303               	bcf	3,6	;RP1=0, select bank0
  4623     0DDB  086D               	movf	___fltol@f1+2,w
  4624     0DDC  1683               	bsf	3,5	;RP0=1, select bank1
  4625     0DDD  1303               	bcf	3,6	;RP1=0, select bank1
  4626     0DDE  00A2               	movwf	(??___fltol^(0+128)+2)
  4627     0DDF  1283               	bcf	3,5	;RP0=0, select bank0
  4628     0DE0  1303               	bcf	3,6	;RP1=0, select bank0
  4629     0DE1  086E               	movf	___fltol@f1+3,w
  4630     0DE2  1683               	bsf	3,5	;RP0=1, select bank1
  4631     0DE3  1303               	bcf	3,6	;RP1=0, select bank1
  4632     0DE4  00A3               	movwf	(??___fltol^(0+128)+3)
  4633     0DE5  301F               	movlw	31
  4634     0DE6                     u238_25:
  4635     0DE6  1003               	clrc
  4636     0DE7  0CA3               	rrf	(??___fltol^(0+128)+3),f
  4637     0DE8  0CA2               	rrf	(??___fltol^(0+128)+2),f
  4638     0DE9  0CA1               	rrf	(??___fltol^(0+128)+1),f
  4639     0DEA  0CA0               	rrf	??___fltol^(0+128),f
  4640     0DEB                     u238_20:
  4641     0DEB  3EFF               	addlw	-1
  4642     0DEC  1D03               	skipz
  4643     0DED  2DE6               	goto	u238_25
  4644     0DEE  0820               	movf	??___fltol^(0+128),w
  4645     0DEF  00A4               	movwf	___fltol@sign1^(0+128)
  4646     0DF0                     i1l2106:
  4647     0DF0  1283               	bcf	3,5	;RP0=0, select bank0
  4648     0DF1  1303               	bcf	3,6	;RP1=0, select bank0
  4649     0DF2  17ED               	bsf	___fltol@f1+2,7
  4650     0DF3                     i1l2108:
  4651     0DF3  30FF               	movlw	255
  4652     0DF4  05EB               	andwf	___fltol@f1,f
  4653     0DF5  30FF               	movlw	255
  4654     0DF6  05EC               	andwf	___fltol@f1+1,f
  4655     0DF7  30FF               	movlw	255
  4656     0DF8  05ED               	andwf	___fltol@f1+2,f
  4657     0DF9  3000               	movlw	0
  4658     0DFA  05EE               	andwf	___fltol@f1+3,f
  4659     0DFB                     i1l2110:
  4660     0DFB  3096               	movlw	150
  4661     0DFC  1683               	bsf	3,5	;RP0=1, select bank1
  4662     0DFD  1303               	bcf	3,6	;RP1=0, select bank1
  4663     0DFE  02A5               	subwf	___fltol@exp1^(0+128),f
  4664     0DFF                     i1l2112:
  4665     0DFF  1FA5               	btfss	___fltol@exp1^(0+128),7
  4666     0E00  2E02               	goto	u239_21
  4667     0E01  2E03               	goto	u239_20
  4668     0E02                     u239_21:
  4669     0E02  2E21               	goto	i1l2124
  4670     0E03                     u239_20:
  4671     0E03                     i1l2114:
  4672     0E03  0825               	movf	___fltol@exp1^(0+128),w
  4673     0E04  3A80               	xorlw	128
  4674     0E05  3E97               	addlw	151
  4675     0E06  1803               	skipnc
  4676     0E07  2E09               	goto	u240_21
  4677     0E08  2E0A               	goto	u240_20
  4678     0E09                     u240_21:
  4679     0E09  2E0B               	goto	i1l2120
  4680     0E0A                     u240_20:
  4681     0E0A  2DC2               	goto	i1l2100
  4682     0E0B                     i1l2120:
  4683     0E0B  3001               	movlw	1
  4684     0E0C                     u241_25:
  4685     0E0C  1003               	clrc
  4686     0E0D  1283               	bcf	3,5	;RP0=0, select bank0
  4687     0E0E  1303               	bcf	3,6	;RP1=0, select bank0
  4688     0E0F  0CEE               	rrf	___fltol@f1+3,f
  4689     0E10  0CED               	rrf	___fltol@f1+2,f
  4690     0E11  0CEC               	rrf	___fltol@f1+1,f
  4691     0E12  0CEB               	rrf	___fltol@f1,f
  4692     0E13  3EFF               	addlw	-1
  4693     0E14  1D03               	skipz
  4694     0E15  2E0C               	goto	u241_25
  4695     0E16                     i1l2122:
  4696     0E16  3001               	movlw	1
  4697     0E17  00FF               	movwf	btemp+1
  4698     0E18  087F               	movf	btemp+1,w
  4699     0E19  1683               	bsf	3,5	;RP0=1, select bank1
  4700     0E1A  1303               	bcf	3,6	;RP1=0, select bank1
  4701     0E1B  07A5               	addwf	___fltol@exp1^(0+128),f
  4702     0E1C  1D03               	btfss	3,2
  4703     0E1D  2E1F               	goto	u242_21
  4704     0E1E  2E20               	goto	u242_20
  4705     0E1F                     u242_21:
  4706     0E1F  2E0B               	goto	i1l2120
  4707     0E20                     u242_20:
  4708     0E20  2E3C               	goto	i1l2132
  4709     0E21                     i1l2124:
  4710     0E21  3020               	movlw	32
  4711     0E22  0225               	subwf	___fltol@exp1^(0+128),w
  4712     0E23  1C03               	skipc
  4713     0E24  2E26               	goto	u243_21
  4714     0E25  2E27               	goto	u243_20
  4715     0E26                     u243_21:
  4716     0E26  2E37               	goto	i1l567
  4717     0E27                     u243_20:
  4718     0E27  2DC2               	goto	i1l2100
  4719     0E28                     i1l2130:
  4720     0E28  3001               	movlw	1
  4721     0E29  00A0               	movwf	??___fltol^(0+128)
  4722     0E2A                     u244_25:
  4723     0E2A  1003               	clrc
  4724     0E2B  1283               	bcf	3,5	;RP0=0, select bank0
  4725     0E2C  1303               	bcf	3,6	;RP1=0, select bank0
  4726     0E2D  0DEB               	rlf	___fltol@f1,f
  4727     0E2E  0DEC               	rlf	___fltol@f1+1,f
  4728     0E2F  0DED               	rlf	___fltol@f1+2,f
  4729     0E30  0DEE               	rlf	___fltol@f1+3,f
  4730     0E31  1683               	bsf	3,5	;RP0=1, select bank1
  4731     0E32  1303               	bcf	3,6	;RP1=0, select bank1
  4732     0E33  0BA0               	decfsz	??___fltol^(0+128),f
  4733     0E34  2E2A               	goto	u244_25
  4734     0E35  3001               	movlw	1
  4735     0E36  02A5               	subwf	___fltol@exp1^(0+128),f
  4736     0E37                     i1l567:
  4737     0E37  0825               	movf	___fltol@exp1^(0+128),w
  4738     0E38  1D03               	btfss	3,2
  4739     0E39  2E3B               	goto	u245_21
  4740     0E3A  2E3C               	goto	u245_20
  4741     0E3B                     u245_21:
  4742     0E3B  2E28               	goto	i1l2130
  4743     0E3C                     u245_20:
  4744     0E3C                     i1l2132:
  4745     0E3C  0824               	movf	___fltol@sign1^(0+128),w
  4746     0E3D  1903               	btfsc	3,2
  4747     0E3E  2E40               	goto	u246_21
  4748     0E3F  2E41               	goto	u246_20
  4749     0E40                     u246_21:
  4750     0E40  2E4E               	goto	i1l570
  4751     0E41                     u246_20:
  4752     0E41                     i1l2134:
  4753     0E41  1283               	bcf	3,5	;RP0=0, select bank0
  4754     0E42  1303               	bcf	3,6	;RP1=0, select bank0
  4755     0E43  09EB               	comf	___fltol@f1,f
  4756     0E44  09EC               	comf	___fltol@f1+1,f
  4757     0E45  09ED               	comf	___fltol@f1+2,f
  4758     0E46  09EE               	comf	___fltol@f1+3,f
  4759     0E47  0AEB               	incf	___fltol@f1,f
  4760     0E48  1903               	skipnz
  4761     0E49  0AEC               	incf	___fltol@f1+1,f
  4762     0E4A  1903               	skipnz
  4763     0E4B  0AED               	incf	___fltol@f1+2,f
  4764     0E4C  1903               	skipnz
  4765     0E4D  0AEE               	incf	___fltol@f1+3,f
  4766     0E4E                     i1l570:
  4767     0E4E                     i1l560:
  4768     0E4E  0008               	return
  4769     0E4F                     __end_of___fltol:
  4770                           
  4771                           	psect	text38
  4772     0B4B                     __ptext38:	
  4773 ;; *************** function ___flsub *****************
  4774 ;; Defined at:
  4775 ;;		line 242 in file "C:\Program Files\Microchip\xc8\v2.45\pic\sources\c99\common\sprcadd.c"
  4776 ;; Parameters:    Size  Location     Type
  4777 ;;  a               4   67[BANK0 ] long 
  4778 ;;  b               4   71[BANK0 ] long 
  4779 ;; Auto vars:     Size  Location     Type
  4780 ;;		None
  4781 ;; Return value:  Size  Location     Type
  4782 ;;                  4   67[BANK0 ] long 
  4783 ;; Registers used:
  4784 ;;		wreg, status,2, status,0, btemp+1, pclath, cstack
  4785 ;; Tracked objects:
  4786 ;;		On entry : 0/0
  4787 ;;		On exit  : 0/0
  4788 ;;		Unchanged: 0/0
  4789 ;; Data sizes:     COMMON   BANK0   BANK1   BANK2
  4790 ;;      Params:         0       8       0       0
  4791 ;;      Locals:         0       0       0       0
  4792 ;;      Temps:          0       0       0       0
  4793 ;;      Totals:         0       8       0       0
  4794 ;;Total ram usage:        8 bytes
  4795 ;; Hardware stack levels used: 1
  4796 ;; Hardware stack levels required when called: 1
  4797 ;; This function calls:
  4798 ;;		___fladd
  4799 ;; This function is called by:
  4800 ;;		_calculate_timer_counts
  4801 ;; This function uses a non-reentrant model
  4802 ;;
  4803                           
  4804     0B4B                     ___flsub:	
  4805                           ;psect for function ___flsub
  4806                           
  4807     0B4B                     i1l2136:	
  4808                           ;incstack = 0
  4809 ;; hardware stack exceeded
  4810                           ; Regs used in ___flsub: [wreg+status,2+status,0+btemp+1+pclath+cstack]
  4811                           
  4812     0B4B  3080               	movlw	128
  4813     0B4C  1283               	bcf	3,5	;RP0=0, select bank0
  4814     0B4D  1303               	bcf	3,6	;RP1=0, select bank0
  4815     0B4E  06E6               	xorwf	___flsub@a+3,f
  4816     0B4F                     i1l2138:
  4817     0B4F  086A               	movf	___flsub@b+3,w
  4818     0B50  00D2               	movwf	___fladd@b+3
  4819     0B51  0869               	movf	___flsub@b+2,w
  4820     0B52  00D1               	movwf	___fladd@b+2
  4821     0B53  0868               	movf	___flsub@b+1,w
  4822     0B54  00D0               	movwf	___fladd@b+1
  4823     0B55  0867               	movf	___flsub@b,w
  4824     0B56  00CF               	movwf	___fladd@b
  4825     0B57  0866               	movf	___flsub@a+3,w
  4826     0B58  00D6               	movwf	___fladd@a+3
  4827     0B59  0865               	movf	___flsub@a+2,w
  4828     0B5A  00D5               	movwf	___fladd@a+2
  4829     0B5B  0864               	movf	___flsub@a+1,w
  4830     0B5C  00D4               	movwf	___fladd@a+1
  4831     0B5D  0863               	movf	___flsub@a,w
  4832     0B5E  00D3               	movwf	___fladd@a
  4833     0B5F  118A  2363  158A   	fcall	___fladd
  4834     0B62  1283               	bcf	3,5	;RP0=0, select bank0
  4835     0B63  1303               	bcf	3,6	;RP1=0, select bank0
  4836     0B64  0852               	movf	?___fladd+3,w
  4837     0B65  00E6               	movwf	?___flsub+3
  4838     0B66  0851               	movf	?___fladd+2,w
  4839     0B67  00E5               	movwf	?___flsub+2
  4840     0B68  0850               	movf	?___fladd+1,w
  4841     0B69  00E4               	movwf	?___flsub+1
  4842     0B6A  084F               	movf	?___fladd,w
  4843     0B6B  00E3               	movwf	?___flsub
  4844     0B6C                     i1l713:
  4845     0B6C  0008               	return
  4846     0B6D                     __end_of___flsub:
  4847                           
  4848                           	psect	text39
  4849     0363                     __ptext39:	
  4850 ;; *************** function ___fladd *****************
  4851 ;; Defined at:
  4852 ;;		line 10 in file "C:\Program Files\Microchip\xc8\v2.45\pic\sources\c99\common\sprcadd.c"
  4853 ;; Parameters:    Size  Location     Type
  4854 ;;  b               4   47[BANK0 ] long 
  4855 ;;  a               4   51[BANK0 ] long 
  4856 ;; Auto vars:     Size  Location     Type
  4857 ;;  grs             1   66[BANK0 ] unsigned char 
  4858 ;;  bexp            1   65[BANK0 ] unsigned char 
  4859 ;;  aexp            1   64[BANK0 ] unsigned char 
  4860 ;;  signs           1   63[BANK0 ] unsigned char 
  4861 ;; Return value:  Size  Location     Type
  4862 ;;                  4   47[BANK0 ] unsigned char 
  4863 ;; Registers used:
  4864 ;;		wreg, status,2, status,0, btemp+1
  4865 ;; Tracked objects:
  4866 ;;		On entry : 0/0
  4867 ;;		On exit  : 0/0
  4868 ;;		Unchanged: 0/0
  4869 ;; Data sizes:     COMMON   BANK0   BANK1   BANK2
  4870 ;;      Params:         0       8       0       0
  4871 ;;      Locals:         0       4       0       0
  4872 ;;      Temps:          0       8       0       0
  4873 ;;      Totals:         0      20       0       0
  4874 ;;Total ram usage:       20 bytes
  4875 ;; Hardware stack levels used: 1
  4876 ;; This function calls:
  4877 ;;		Nothing
  4878 ;; This function is called by:
  4879 ;;		_calculate_timer_counts
  4880 ;;		___flsub
  4881 ;; This function uses a non-reentrant model
  4882 ;;
  4883                           
  4884     0363                     ___fladd:	
  4885                           ;psect for function ___fladd
  4886                           
  4887     0363                     i1l1884:	
  4888                           ;incstack = 0
  4889 ;; hardware stack exceeded
  4890                           ; Regs used in ___fladd: [wreg+status,2+status,0+btemp+1]
  4891                           
  4892     0363  1283               	bcf	3,5	;RP0=0, select bank0
  4893     0364  1303               	bcf	3,6	;RP1=0, select bank0
  4894     0365  0852               	movf	___fladd@b+3,w
  4895     0366  3980               	andlw	128
  4896     0367  00DF               	movwf	___fladd@signs
  4897     0368                     i1l1886:
  4898     0368  0852               	movf	___fladd@b+3,w
  4899     0369  00D7               	movwf	??___fladd
  4900     036A  0757               	addwf	??___fladd,w
  4901     036B  00E1               	movwf	___fladd@bexp
  4902     036C                     i1l1888:
  4903     036C  1FD1               	btfss	___fladd@b+2,7
  4904     036D  2B6F               	goto	u188_21
  4905     036E  2B70               	goto	u188_20
  4906     036F                     u188_21:
  4907     036F  2B71               	goto	i1l1892
  4908     0370                     u188_20:
  4909     0370                     i1l1890:
  4910     0370  1461               	bsf	___fladd@bexp,0
  4911     0371                     i1l1892:
  4912     0371  0861               	movf	___fladd@bexp,w
  4913     0372  1903               	btfsc	3,2
  4914     0373  2B75               	goto	u189_21
  4915     0374  2B76               	goto	u189_20
  4916     0375                     u189_21:
  4917     0375  2B86               	goto	i1l1902
  4918     0376                     u189_20:
  4919     0376                     i1l1894:
  4920     0376  0A61               	incf	___fladd@bexp,w
  4921     0377  1D03               	btfss	3,2
  4922     0378  2B7A               	goto	u190_21
  4923     0379  2B7B               	goto	u190_20
  4924     037A                     u190_21:
  4925     037A  2B83               	goto	i1l1898
  4926     037B                     u190_20:
  4927     037B                     i1l1896:
  4928     037B  3000               	movlw	0
  4929     037C  00D2               	movwf	___fladd@b+3
  4930     037D  3000               	movlw	0
  4931     037E  00D1               	movwf	___fladd@b+2
  4932     037F  3000               	movlw	0
  4933     0380  00D0               	movwf	___fladd@b+1
  4934     0381  3000               	movlw	0
  4935     0382  00CF               	movwf	___fladd@b
  4936     0383                     i1l1898:
  4937     0383  17D1               	bsf	___fladd@b+2,7
  4938     0384                     i1l1900:
  4939     0384  01D2               	clrf	___fladd@b+3
  4940     0385  2B8E               	goto	i1l1904
  4941     0386                     i1l1902:
  4942     0386  3000               	movlw	0
  4943     0387  00D2               	movwf	___fladd@b+3
  4944     0388  3000               	movlw	0
  4945     0389  00D1               	movwf	___fladd@b+2
  4946     038A  3000               	movlw	0
  4947     038B  00D0               	movwf	___fladd@b+1
  4948     038C  3000               	movlw	0
  4949     038D  00CF               	movwf	___fladd@b
  4950     038E                     i1l1904:
  4951     038E  0856               	movf	___fladd@a+3,w
  4952     038F  3980               	andlw	128
  4953     0390  00E0               	movwf	___fladd@aexp
  4954     0391                     i1l1906:
  4955     0391  0860               	movf	___fladd@aexp,w
  4956     0392  065F               	xorwf	___fladd@signs,w
  4957     0393  1903               	skipnz
  4958     0394  2B96               	goto	u191_21
  4959     0395  2B97               	goto	u191_20
  4960     0396                     u191_21:
  4961     0396  2B98               	goto	i1l1910
  4962     0397                     u191_20:
  4963     0397                     i1l1908:
  4964     0397  175F               	bsf	___fladd@signs,6
  4965     0398                     i1l1910:
  4966     0398  0856               	movf	___fladd@a+3,w
  4967     0399  00D7               	movwf	??___fladd
  4968     039A  0757               	addwf	??___fladd,w
  4969     039B  00E0               	movwf	___fladd@aexp
  4970     039C                     i1l1912:
  4971     039C  1FD5               	btfss	___fladd@a+2,7
  4972     039D  2B9F               	goto	u192_21
  4973     039E  2BA0               	goto	u192_20
  4974     039F                     u192_21:
  4975     039F  2BA1               	goto	i1l1916
  4976     03A0                     u192_20:
  4977     03A0                     i1l1914:
  4978     03A0  1460               	bsf	___fladd@aexp,0
  4979     03A1                     i1l1916:
  4980     03A1  0860               	movf	___fladd@aexp,w
  4981     03A2  1903               	btfsc	3,2
  4982     03A3  2BA5               	goto	u193_21
  4983     03A4  2BA6               	goto	u193_20
  4984     03A5                     u193_21:
  4985     03A5  2BB6               	goto	i1l1926
  4986     03A6                     u193_20:
  4987     03A6                     i1l1918:
  4988     03A6  0A60               	incf	___fladd@aexp,w
  4989     03A7  1D03               	btfss	3,2
  4990     03A8  2BAA               	goto	u194_21
  4991     03A9  2BAB               	goto	u194_20
  4992     03AA                     u194_21:
  4993     03AA  2BB3               	goto	i1l1922
  4994     03AB                     u194_20:
  4995     03AB                     i1l1920:
  4996     03AB  3000               	movlw	0
  4997     03AC  00D6               	movwf	___fladd@a+3
  4998     03AD  3000               	movlw	0
  4999     03AE  00D5               	movwf	___fladd@a+2
  5000     03AF  3000               	movlw	0
  5001     03B0  00D4               	movwf	___fladd@a+1
  5002     03B1  3000               	movlw	0
  5003     03B2  00D3               	movwf	___fladd@a
  5004     03B3                     i1l1922:
  5005     03B3  17D5               	bsf	___fladd@a+2,7
  5006     03B4                     i1l1924:
  5007     03B4  01D6               	clrf	___fladd@a+3
  5008     03B5  2BBE               	goto	i1l667
  5009     03B6                     i1l1926:
  5010     03B6  3000               	movlw	0
  5011     03B7  00D6               	movwf	___fladd@a+3
  5012     03B8  3000               	movlw	0
  5013     03B9  00D5               	movwf	___fladd@a+2
  5014     03BA  3000               	movlw	0
  5015     03BB  00D4               	movwf	___fladd@a+1
  5016     03BC  3000               	movlw	0
  5017     03BD  00D3               	movwf	___fladd@a
  5018     03BE                     i1l667:
  5019     03BE  0861               	movf	___fladd@bexp,w
  5020     03BF  0260               	subwf	___fladd@aexp,w
  5021     03C0  1803               	skipnc
  5022     03C1  2BC3               	goto	u195_21
  5023     03C2  2BC4               	goto	u195_20
  5024     03C3                     u195_21:
  5025     03C3  2BEA               	goto	i1l1962
  5026     03C4                     u195_20:
  5027     03C4                     i1l1928:
  5028     03C4  1F5F               	btfss	___fladd@signs,6
  5029     03C5  2BC7               	goto	u196_21
  5030     03C6  2BC8               	goto	u196_20
  5031     03C7                     u196_21:
  5032     03C7  2BCC               	goto	i1l1932
  5033     03C8                     u196_20:
  5034     03C8                     i1l1930:
  5035     03C8  3080               	movlw	128
  5036     03C9  00FF               	movwf	btemp+1
  5037     03CA  087F               	movf	btemp+1,w
  5038     03CB  06DF               	xorwf	___fladd@signs,f
  5039     03CC                     i1l1932:
  5040     03CC  0861               	movf	___fladd@bexp,w
  5041     03CD  00E2               	movwf	___fladd@grs
  5042     03CE                     i1l1934:
  5043     03CE  0860               	movf	___fladd@aexp,w
  5044     03CF  00E1               	movwf	___fladd@bexp
  5045     03D0                     i1l1936:
  5046     03D0  0862               	movf	___fladd@grs,w
  5047     03D1  00E0               	movwf	___fladd@aexp
  5048     03D2                     i1l1938:
  5049     03D2  084F               	movf	___fladd@b,w
  5050     03D3  00E2               	movwf	___fladd@grs
  5051     03D4                     i1l1940:
  5052     03D4  0853               	movf	___fladd@a,w
  5053     03D5  00CF               	movwf	___fladd@b
  5054     03D6                     i1l1942:
  5055     03D6  0862               	movf	___fladd@grs,w
  5056     03D7  00D3               	movwf	___fladd@a
  5057     03D8                     i1l1944:
  5058     03D8  0850               	movf	___fladd@b+1,w
  5059     03D9  00E2               	movwf	___fladd@grs
  5060     03DA                     i1l1946:
  5061     03DA  0854               	movf	___fladd@a+1,w
  5062     03DB  00D0               	movwf	___fladd@b+1
  5063     03DC                     i1l1948:
  5064     03DC  0862               	movf	___fladd@grs,w
  5065     03DD  00D4               	movwf	___fladd@a+1
  5066     03DE                     i1l1950:
  5067     03DE  0851               	movf	___fladd@b+2,w
  5068     03DF  00E2               	movwf	___fladd@grs
  5069     03E0                     i1l1952:
  5070     03E0  0855               	movf	___fladd@a+2,w
  5071     03E1  00D1               	movwf	___fladd@b+2
  5072     03E2                     i1l1954:
  5073     03E2  0862               	movf	___fladd@grs,w
  5074     03E3  00D5               	movwf	___fladd@a+2
  5075     03E4                     i1l1956:
  5076     03E4  0852               	movf	___fladd@b+3,w
  5077     03E5  00E2               	movwf	___fladd@grs
  5078     03E6                     i1l1958:
  5079     03E6  0856               	movf	___fladd@a+3,w
  5080     03E7  00D2               	movwf	___fladd@b+3
  5081     03E8                     i1l1960:
  5082     03E8  0862               	movf	___fladd@grs,w
  5083     03E9  00D6               	movwf	___fladd@a+3
  5084     03EA                     i1l1962:
  5085     03EA  01E2               	clrf	___fladd@grs
  5086     03EB                     i1l1964:
  5087     03EB  0860               	movf	___fladd@aexp,w
  5088     03EC  00D7               	movwf	??___fladd
  5089     03ED  01D8               	clrf	??___fladd+1
  5090     03EE  0858               	movf	??___fladd+1,w
  5091     03EF  00DA               	movwf	??___fladd+3
  5092     03F0  0861               	movf	___fladd@bexp,w
  5093     03F1  0257               	subwf	??___fladd,w
  5094     03F2  00D9               	movwf	??___fladd+2
  5095     03F3  1C03               	skipc
  5096     03F4  03DA               	decf	??___fladd+3,f
  5097     03F5  085A               	movf	??___fladd+3,w
  5098     03F6  3A80               	xorlw	128
  5099     03F7  00FF               	movwf	btemp+1
  5100     03F8  3080               	movlw	128
  5101     03F9  027F               	subwf	btemp+1,w
  5102     03FA  1D03               	skipz
  5103     03FB  2BFE               	goto	u197_25
  5104     03FC  301A               	movlw	26
  5105     03FD  0259               	subwf	??___fladd+2,w
  5106     03FE                     u197_25:
  5107     03FE  1C03               	skipc
  5108     03FF  2C01               	goto	u197_21
  5109     0400  2C02               	goto	u197_20
  5110     0401                     u197_21:
  5111     0401  2C39               	goto	i1l1980
  5112     0402                     u197_20:
  5113     0402                     i1l1966:
  5114     0402  1283               	bcf	3,5	;RP0=0, select bank0
  5115     0403  1303               	bcf	3,6	;RP1=0, select bank0
  5116     0404  0852               	movf	___fladd@b+3,w
  5117     0405  0451               	iorwf	___fladd@b+2,w
  5118     0406  0450               	iorwf	___fladd@b+1,w
  5119     0407  044F               	iorwf	___fladd@b,w
  5120     0408  1D03               	skipz
  5121     0409  2C0B               	goto	u198_21
  5122     040A  2C0D               	goto	u198_20
  5123     040B                     u198_21:
  5124     040B  3001               	movlw	1
  5125     040C  2C0E               	goto	u199_20
  5126     040D                     u198_20:
  5127     040D  3000               	movlw	0
  5128     040E                     u199_20:
  5129     040E  00E2               	movwf	___fladd@grs
  5130     040F  3000               	movlw	0
  5131     0410  00D2               	movwf	___fladd@b+3
  5132     0411  3000               	movlw	0
  5133     0412  00D1               	movwf	___fladd@b+2
  5134     0413  3000               	movlw	0
  5135     0414  00D0               	movwf	___fladd@b+1
  5136     0415  3000               	movlw	0
  5137     0416  00CF               	movwf	___fladd@b
  5138     0417  0860               	movf	___fladd@aexp,w
  5139     0418  00E1               	movwf	___fladd@bexp
  5140     0419  2C41               	goto	i1l671
  5141     041A                     i1l673:
  5142     041A  1C62               	btfss	___fladd@grs,0
  5143     041B  2C1D               	goto	u200_21
  5144     041C  2C1E               	goto	u200_20
  5145     041D                     u200_21:
  5146     041D  2C25               	goto	i1l1970
  5147     041E                     u200_20:
  5148     041E                     i1l1968:
  5149     041E  0862               	movf	___fladd@grs,w
  5150     041F  00D7               	movwf	??___fladd
  5151     0420  1003               	clrc
  5152     0421  0C57               	rrf	??___fladd,w
  5153     0422  3801               	iorlw	1
  5154     0423  00E2               	movwf	___fladd@grs
  5155     0424  2C27               	goto	i1l1972
  5156     0425                     i1l1970:
  5157     0425  1003               	clrc
  5158     0426  0CE2               	rrf	___fladd@grs,f
  5159     0427                     i1l1972:
  5160     0427  1C4F               	btfss	___fladd@b,0
  5161     0428  2C2A               	goto	u201_21
  5162     0429  2C2B               	goto	u201_20
  5163     042A                     u201_21:
  5164     042A  2C2C               	goto	i1l1976
  5165     042B                     u201_20:
  5166     042B                     i1l1974:
  5167     042B  17E2               	bsf	___fladd@grs,7
  5168     042C                     i1l1976:
  5169     042C  3001               	movlw	1
  5170     042D  00D7               	movwf	??___fladd
  5171     042E                     u202_25:
  5172     042E  0D52               	rlf	___fladd@b+3,w
  5173     042F  0CD2               	rrf	___fladd@b+3,f
  5174     0430  0CD1               	rrf	___fladd@b+2,f
  5175     0431  0CD0               	rrf	___fladd@b+1,f
  5176     0432  0CCF               	rrf	___fladd@b,f
  5177     0433  0BD7               	decfsz	??___fladd& (0+127),f
  5178     0434  2C2E               	goto	u202_25
  5179     0435                     i1l1978:
  5180     0435  3001               	movlw	1
  5181     0436  00FF               	movwf	btemp+1
  5182     0437  087F               	movf	btemp+1,w
  5183     0438  07E1               	addwf	___fladd@bexp,f
  5184     0439                     i1l1980:
  5185     0439  1283               	bcf	3,5	;RP0=0, select bank0
  5186     043A  1303               	bcf	3,6	;RP1=0, select bank0
  5187     043B  0860               	movf	___fladd@aexp,w
  5188     043C  0261               	subwf	___fladd@bexp,w
  5189     043D  1C03               	skipc
  5190     043E  2C40               	goto	u203_21
  5191     043F  2C41               	goto	u203_20
  5192     0440                     u203_21:
  5193     0440  2C1A               	goto	i1l673
  5194     0441                     u203_20:
  5195     0441                     i1l671:
  5196     0441  1B5F               	btfsc	___fladd@signs,6
  5197     0442  2C44               	goto	u204_21
  5198     0443  2C45               	goto	u204_20
  5199     0444                     u204_21:
  5200     0444  2C8E               	goto	i1l2006
  5201     0445                     u204_20:
  5202     0445                     i1l1982:
  5203     0445  0861               	movf	___fladd@bexp,w
  5204     0446  1D03               	btfss	3,2
  5205     0447  2C49               	goto	u205_21
  5206     0448  2C4A               	goto	u205_20
  5207     0449                     u205_21:
  5208     0449  2C53               	goto	i1l1988
  5209     044A                     u205_20:
  5210     044A                     i1l1984:
  5211     044A  3000               	movlw	0
  5212     044B  00D2               	movwf	?___fladd+3
  5213     044C  3000               	movlw	0
  5214     044D  00D1               	movwf	?___fladd+2
  5215     044E  3000               	movlw	0
  5216     044F  00D0               	movwf	?___fladd+1
  5217     0450  3000               	movlw	0
  5218     0451  00CF               	movwf	?___fladd
  5219     0452  2DBA               	goto	i1l680
  5220     0453                     i1l1988:
  5221     0453  0853               	movf	___fladd@a,w
  5222     0454  07CF               	addwf	___fladd@b,f
  5223     0455  0854               	movf	___fladd@a+1,w
  5224     0456  1103               	clrz
  5225     0457  1803               	skipnc
  5226     0458  3E01               	addlw	1
  5227     0459  1903               	skipnz
  5228     045A  2C5C               	goto	u206_21
  5229     045B  07D0               	addwf	___fladd@b+1,f
  5230     045C                     u206_21:
  5231     045C  0855               	movf	___fladd@a+2,w
  5232     045D  1103               	clrz
  5233     045E  1803               	skipnc
  5234     045F  3E01               	addlw	1
  5235     0460  1903               	skipnz
  5236     0461  2C63               	goto	u206_22
  5237     0462  07D1               	addwf	___fladd@b+2,f
  5238     0463                     u206_22:
  5239     0463  0856               	movf	___fladd@a+3,w
  5240     0464  1103               	clrz
  5241     0465  1803               	skipnc
  5242     0466  3E01               	addlw	1
  5243     0467  1903               	skipnz
  5244     0468  2C6A               	goto	u206_23
  5245     0469  07D2               	addwf	___fladd@b+3,f
  5246     046A                     u206_23:
  5247     046A                     i1l1990:
  5248     046A  1C52               	btfss	___fladd@b+3,0
  5249     046B  2C6D               	goto	u207_21
  5250     046C  2C6E               	goto	u207_20
  5251     046D                     u207_21:
  5252     046D  2D42               	goto	i1l2042
  5253     046E                     u207_20:
  5254     046E                     i1l1992:
  5255     046E  1C62               	btfss	___fladd@grs,0
  5256     046F  2C71               	goto	u208_21
  5257     0470  2C72               	goto	u208_20
  5258     0471                     u208_21:
  5259     0471  2C79               	goto	i1l1996
  5260     0472                     u208_20:
  5261     0472                     i1l1994:
  5262     0472  0862               	movf	___fladd@grs,w
  5263     0473  00D7               	movwf	??___fladd
  5264     0474  1003               	clrc
  5265     0475  0C57               	rrf	??___fladd,w
  5266     0476  3801               	iorlw	1
  5267     0477  00E2               	movwf	___fladd@grs
  5268     0478  2C7B               	goto	i1l1998
  5269     0479                     i1l1996:
  5270     0479  1003               	clrc
  5271     047A  0CE2               	rrf	___fladd@grs,f
  5272     047B                     i1l1998:
  5273     047B  1C4F               	btfss	___fladd@b,0
  5274     047C  2C7E               	goto	u209_21
  5275     047D  2C7F               	goto	u209_20
  5276     047E                     u209_21:
  5277     047E  2C80               	goto	i1l2002
  5278     047F                     u209_20:
  5279     047F                     i1l2000:
  5280     047F  17E2               	bsf	___fladd@grs,7
  5281     0480                     i1l2002:
  5282     0480  3001               	movlw	1
  5283     0481  00D7               	movwf	??___fladd
  5284     0482                     u210_25:
  5285     0482  0D52               	rlf	___fladd@b+3,w
  5286     0483  0CD2               	rrf	___fladd@b+3,f
  5287     0484  0CD1               	rrf	___fladd@b+2,f
  5288     0485  0CD0               	rrf	___fladd@b+1,f
  5289     0486  0CCF               	rrf	___fladd@b,f
  5290     0487  0BD7               	decfsz	??___fladd& (0+127),f
  5291     0488  2C82               	goto	u210_25
  5292     0489                     i1l2004:
  5293     0489  3001               	movlw	1
  5294     048A  00FF               	movwf	btemp+1
  5295     048B  087F               	movf	btemp+1,w
  5296     048C  07E1               	addwf	___fladd@bexp,f
  5297     048D  2D42               	goto	i1l2042
  5298     048E                     i1l2006:
  5299     048E  0852               	movf	___fladd@b+3,w
  5300     048F  3A80               	xorlw	128
  5301     0490  00FF               	movwf	btemp+1
  5302     0491  0856               	movf	___fladd@a+3,w
  5303     0492  3A80               	xorlw	128
  5304     0493  027F               	subwf	btemp+1,w
  5305     0494  1D03               	skipz
  5306     0495  2CA0               	goto	u211_23
  5307     0496  0855               	movf	___fladd@a+2,w
  5308     0497  0251               	subwf	___fladd@b+2,w
  5309     0498  1D03               	skipz
  5310     0499  2CA0               	goto	u211_23
  5311     049A  0854               	movf	___fladd@a+1,w
  5312     049B  0250               	subwf	___fladd@b+1,w
  5313     049C  1D03               	skipz
  5314     049D  2CA0               	goto	u211_23
  5315     049E  0853               	movf	___fladd@a,w
  5316     049F  024F               	subwf	___fladd@b,w
  5317     04A0                     u211_23:
  5318     04A0  1803               	skipnc
  5319     04A1  2CA3               	goto	u211_21
  5320     04A2  2CA4               	goto	u211_20
  5321     04A3                     u211_21:
  5322     04A3  2CFC               	goto	i1l2018
  5323     04A4                     u211_20:
  5324     04A4                     i1l2008:
  5325     04A4  30FF               	movlw	255
  5326     04A5  00D7               	movwf	??___fladd
  5327     04A6  30FF               	movlw	255
  5328     04A7  00D8               	movwf	??___fladd+1
  5329     04A8  30FF               	movlw	255
  5330     04A9  00D9               	movwf	??___fladd+2
  5331     04AA  30FF               	movlw	255
  5332     04AB  00DA               	movwf	??___fladd+3
  5333     04AC  0853               	movf	___fladd@a,w
  5334     04AD  00DB               	movwf	??___fladd+4
  5335     04AE  0854               	movf	___fladd@a+1,w
  5336     04AF  00DC               	movwf	??___fladd+5
  5337     04B0  0855               	movf	___fladd@a+2,w
  5338     04B1  00DD               	movwf	??___fladd+6
  5339     04B2  0856               	movf	___fladd@a+3,w
  5340     04B3  00DE               	movwf	??___fladd+7
  5341     04B4  084F               	movf	___fladd@b,w
  5342     04B5  02DB               	subwf	??___fladd+4,f
  5343     04B6  0850               	movf	___fladd@b+1,w
  5344     04B7  1C03               	skipc
  5345     04B8  0F50               	incfsz	___fladd@b+1,w
  5346     04B9  2CBB               	goto	u212_21
  5347     04BA  2CBC               	goto	u212_22
  5348     04BB                     u212_21:
  5349     04BB  02DC               	subwf	??___fladd+5,f
  5350     04BC                     u212_22:
  5351     04BC  0851               	movf	___fladd@b+2,w
  5352     04BD  1C03               	skipc
  5353     04BE  0F51               	incfsz	___fladd@b+2,w
  5354     04BF  2CC1               	goto	u212_23
  5355     04C0  2CC2               	goto	u212_24
  5356     04C1                     u212_23:
  5357     04C1  02DD               	subwf	??___fladd+6,f
  5358     04C2                     u212_24:
  5359     04C2  0852               	movf	___fladd@b+3,w
  5360     04C3  1C03               	skipc
  5361     04C4  0F52               	incfsz	___fladd@b+3,w
  5362     04C5  2CC7               	goto	u212_25
  5363     04C6  2CC8               	goto	u212_26
  5364     04C7                     u212_25:
  5365     04C7  02DE               	subwf	??___fladd+7,f
  5366     04C8                     u212_26:
  5367     04C8  085B               	movf	??___fladd+4,w
  5368     04C9  07D7               	addwf	??___fladd,f
  5369     04CA  085C               	movf	??___fladd+5,w
  5370     04CB  1803               	skipnc
  5371     04CC  0F5C               	incfsz	??___fladd+5,w
  5372     04CD  2CCF               	goto	u213_20
  5373     04CE  2CD0               	goto	u213_21
  5374     04CF                     u213_20:
  5375     04CF  07D8               	addwf	??___fladd+1,f
  5376     04D0                     u213_21:
  5377     04D0  085D               	movf	??___fladd+6,w
  5378     04D1  1803               	skipnc
  5379     04D2  0F5D               	incfsz	??___fladd+6,w
  5380     04D3  2CD5               	goto	u213_22
  5381     04D4  2CD6               	goto	u213_23
  5382     04D5                     u213_22:
  5383     04D5  07D9               	addwf	??___fladd+2,f
  5384     04D6                     u213_23:
  5385     04D6  085E               	movf	??___fladd+7,w
  5386     04D7  1803               	skipnc
  5387     04D8  0A5E               	incf	??___fladd+7,w
  5388     04D9  07DA               	addwf	??___fladd+3,f
  5389     04DA  085A               	movf	??___fladd+3,w
  5390     04DB  00D2               	movwf	___fladd@b+3
  5391     04DC  0859               	movf	??___fladd+2,w
  5392     04DD  00D1               	movwf	___fladd@b+2
  5393     04DE  0858               	movf	??___fladd+1,w
  5394     04DF  00D0               	movwf	___fladd@b+1
  5395     04E0  0857               	movf	??___fladd,w
  5396     04E1  00CF               	movwf	___fladd@b
  5397     04E2                     i1l2010:
  5398     04E2  3080               	movlw	128
  5399     04E3  00FF               	movwf	btemp+1
  5400     04E4  087F               	movf	btemp+1,w
  5401     04E5  06DF               	xorwf	___fladd@signs,f
  5402     04E6                     i1l2012:
  5403     04E6  09E2               	comf	___fladd@grs,f
  5404     04E7  0AE2               	incf	___fladd@grs,f
  5405     04E8                     i1l2014:
  5406     04E8  0862               	movf	___fladd@grs,w
  5407     04E9  1D03               	btfss	3,2
  5408     04EA  2CEC               	goto	u214_21
  5409     04EB  2CED               	goto	u214_20
  5410     04EC                     u214_21:
  5411     04EC  2D0A               	goto	i1l688
  5412     04ED                     u214_20:
  5413     04ED                     i1l2016:
  5414     04ED  3001               	movlw	1
  5415     04EE  07CF               	addwf	___fladd@b,f
  5416     04EF  3000               	movlw	0
  5417     04F0  1803               	skipnc
  5418     04F1  3001               	movlw	1
  5419     04F2  07D0               	addwf	___fladd@b+1,f
  5420     04F3  3000               	movlw	0
  5421     04F4  1803               	skipnc
  5422     04F5  3001               	movlw	1
  5423     04F6  07D1               	addwf	___fladd@b+2,f
  5424     04F7  3000               	movlw	0
  5425     04F8  1803               	skipnc
  5426     04F9  3001               	movlw	1
  5427     04FA  07D2               	addwf	___fladd@b+3,f
  5428     04FB  2D0A               	goto	i1l688
  5429     04FC                     i1l2018:
  5430     04FC  0853               	movf	___fladd@a,w
  5431     04FD  02CF               	subwf	___fladd@b,f
  5432     04FE  0854               	movf	___fladd@a+1,w
  5433     04FF  1C03               	skipc
  5434     0500  0F54               	incfsz	___fladd@a+1,w
  5435     0501  02D0               	subwf	___fladd@b+1,f
  5436     0502  0855               	movf	___fladd@a+2,w
  5437     0503  1C03               	skipc
  5438     0504  0F55               	incfsz	___fladd@a+2,w
  5439     0505  02D1               	subwf	___fladd@b+2,f
  5440     0506  0856               	movf	___fladd@a+3,w
  5441     0507  1C03               	skipc
  5442     0508  0F56               	incfsz	___fladd@a+3,w
  5443     0509  02D2               	subwf	___fladd@b+3,f
  5444     050A                     i1l688:
  5445     050A  0852               	movf	___fladd@b+3,w
  5446     050B  0451               	iorwf	___fladd@b+2,w
  5447     050C  0450               	iorwf	___fladd@b+1,w
  5448     050D  044F               	iorwf	___fladd@b,w
  5449     050E  1D03               	skipz
  5450     050F  2D11               	goto	u215_21
  5451     0510  2D12               	goto	u215_20
  5452     0511                     u215_21:
  5453     0511  2D3E               	goto	i1l2040
  5454     0512                     u215_20:
  5455     0512                     i1l2020:
  5456     0512  0862               	movf	___fladd@grs,w
  5457     0513  1D03               	btfss	3,2
  5458     0514  2D16               	goto	u216_21
  5459     0515  2D17               	goto	u216_20
  5460     0516                     u216_21:
  5461     0516  2D3E               	goto	i1l2040
  5462     0517                     u216_20:
  5463     0517                     i1l2022:
  5464     0517  3000               	movlw	0
  5465     0518  00D2               	movwf	?___fladd+3
  5466     0519  3000               	movlw	0
  5467     051A  00D1               	movwf	?___fladd+2
  5468     051B  3000               	movlw	0
  5469     051C  00D0               	movwf	?___fladd+1
  5470     051D  3000               	movlw	0
  5471     051E  00CF               	movwf	?___fladd
  5472     051F  2DBA               	goto	i1l680
  5473     0520                     i1l2026:
  5474     0520  3001               	movlw	1
  5475     0521  00D7               	movwf	??___fladd
  5476     0522                     u217_25:
  5477     0522  1003               	clrc
  5478     0523  0DCF               	rlf	___fladd@b,f
  5479     0524  0DD0               	rlf	___fladd@b+1,f
  5480     0525  0DD1               	rlf	___fladd@b+2,f
  5481     0526  0DD2               	rlf	___fladd@b+3,f
  5482     0527  0BD7               	decfsz	??___fladd,f
  5483     0528  2D22               	goto	u217_25
  5484     0529                     i1l2028:
  5485     0529  1FE2               	btfss	___fladd@grs,7
  5486     052A  2D2C               	goto	u218_21
  5487     052B  2D2D               	goto	u218_20
  5488     052C                     u218_21:
  5489     052C  2D2E               	goto	i1l692
  5490     052D                     u218_20:
  5491     052D                     i1l2030:
  5492     052D  144F               	bsf	___fladd@b,0
  5493     052E                     i1l692:
  5494     052E  1C62               	btfss	___fladd@grs,0
  5495     052F  2D31               	goto	u219_21
  5496     0530  2D32               	goto	u219_20
  5497     0531                     u219_21:
  5498     0531  2D35               	goto	i1l2034
  5499     0532                     u219_20:
  5500     0532                     i1l2032:
  5501     0532  1403               	setc
  5502     0533  0DE2               	rlf	___fladd@grs,f
  5503     0534  2D37               	goto	i1l2036
  5504     0535                     i1l2034:
  5505     0535  1003               	clrc
  5506     0536  0DE2               	rlf	___fladd@grs,f
  5507     0537                     i1l2036:
  5508     0537  0861               	movf	___fladd@bexp,w
  5509     0538  1903               	btfsc	3,2
  5510     0539  2D3B               	goto	u220_21
  5511     053A  2D3C               	goto	u220_20
  5512     053B                     u220_21:
  5513     053B  2D3E               	goto	i1l2040
  5514     053C                     u220_20:
  5515     053C                     i1l2038:
  5516     053C  3001               	movlw	1
  5517     053D  02E1               	subwf	___fladd@bexp,f
  5518     053E                     i1l2040:
  5519     053E  1FD1               	btfss	___fladd@b+2,7
  5520     053F  2D41               	goto	u221_21
  5521     0540  2D42               	goto	u221_20
  5522     0541                     u221_21:
  5523     0541  2D20               	goto	i1l2026
  5524     0542                     u221_20:
  5525     0542                     i1l2042:
  5526     0542  01E0               	clrf	___fladd@aexp
  5527     0543                     i1l2044:
  5528     0543  1FE2               	btfss	___fladd@grs,7
  5529     0544  2D46               	goto	u222_21
  5530     0545  2D47               	goto	u222_20
  5531     0546                     u222_21:
  5532     0546  2D55               	goto	i1l2052
  5533     0547                     u222_20:
  5534     0547                     i1l2046:
  5535     0547  0862               	movf	___fladd@grs,w
  5536     0548  397F               	andlw	127
  5537     0549  1903               	btfsc	3,2
  5538     054A  2D4C               	goto	u223_21
  5539     054B  2D4D               	goto	u223_20
  5540     054C                     u223_21:
  5541     054C  2D50               	goto	i1l698
  5542     054D                     u223_20:
  5543     054D                     i1l2048:
  5544     054D  01E0               	clrf	___fladd@aexp
  5545     054E  0AE0               	incf	___fladd@aexp,f
  5546     054F  2D55               	goto	i1l2052
  5547     0550                     i1l698:
  5548     0550  1C4F               	btfss	___fladd@b,0
  5549     0551  2D53               	goto	u224_21
  5550     0552  2D54               	goto	u224_20
  5551     0553                     u224_21:
  5552     0553  2D55               	goto	i1l2052
  5553     0554                     u224_20:
  5554     0554  2D4D               	goto	i1l2048
  5555     0555                     i1l2052:
  5556     0555  0860               	movf	___fladd@aexp,w
  5557     0556  1903               	btfsc	3,2
  5558     0557  2D59               	goto	u225_21
  5559     0558  2D5A               	goto	u225_20
  5560     0559                     u225_21:
  5561     0559  2D8E               	goto	i1l2062
  5562     055A                     u225_20:
  5563     055A                     i1l2054:
  5564     055A  3001               	movlw	1
  5565     055B  07CF               	addwf	___fladd@b,f
  5566     055C  3000               	movlw	0
  5567     055D  1803               	skipnc
  5568     055E  3001               	movlw	1
  5569     055F  07D0               	addwf	___fladd@b+1,f
  5570     0560  3000               	movlw	0
  5571     0561  1803               	skipnc
  5572     0562  3001               	movlw	1
  5573     0563  07D1               	addwf	___fladd@b+2,f
  5574     0564  3000               	movlw	0
  5575     0565  1803               	skipnc
  5576     0566  3001               	movlw	1
  5577     0567  07D2               	addwf	___fladd@b+3,f
  5578     0568                     i1l2056:
  5579     0568  1C52               	btfss	___fladd@b+3,0
  5580     0569  2D6B               	goto	u226_21
  5581     056A  2D6C               	goto	u226_20
  5582     056B                     u226_21:
  5583     056B  2D8E               	goto	i1l2062
  5584     056C                     u226_20:
  5585     056C                     i1l2058:
  5586     056C  084F               	movf	___fladd@b,w
  5587     056D  00D7               	movwf	??___fladd
  5588     056E  0850               	movf	___fladd@b+1,w
  5589     056F  00D8               	movwf	??___fladd+1
  5590     0570  0851               	movf	___fladd@b+2,w
  5591     0571  00D9               	movwf	??___fladd+2
  5592     0572  0852               	movf	___fladd@b+3,w
  5593     0573  00DA               	movwf	??___fladd+3
  5594     0574  3001               	movlw	1
  5595     0575  00DB               	movwf	??___fladd+4
  5596     0576                     u227_25:
  5597     0576  0D5A               	rlf	??___fladd+3,w
  5598     0577  0CDA               	rrf	??___fladd+3,f
  5599     0578  0CD9               	rrf	??___fladd+2,f
  5600     0579  0CD8               	rrf	??___fladd+1,f
  5601     057A  0CD7               	rrf	??___fladd,f
  5602     057B                     u227_20:
  5603     057B  0BDB               	decfsz	??___fladd+4,f
  5604     057C  2D76               	goto	u227_25
  5605     057D  085A               	movf	??___fladd+3,w
  5606     057E  00D2               	movwf	___fladd@b+3
  5607     057F  0859               	movf	??___fladd+2,w
  5608     0580  00D1               	movwf	___fladd@b+2
  5609     0581  0858               	movf	??___fladd+1,w
  5610     0582  00D0               	movwf	___fladd@b+1
  5611     0583  0857               	movf	??___fladd,w
  5612     0584  00CF               	movwf	___fladd@b
  5613     0585  0A61               	incf	___fladd@bexp,w
  5614     0586  1903               	btfsc	3,2
  5615     0587  2D89               	goto	u228_21
  5616     0588  2D8A               	goto	u228_20
  5617     0589                     u228_21:
  5618     0589  2D8E               	goto	i1l2062
  5619     058A                     u228_20:
  5620     058A                     i1l2060:
  5621     058A  3001               	movlw	1
  5622     058B  00FF               	movwf	btemp+1
  5623     058C  087F               	movf	btemp+1,w
  5624     058D  07E1               	addwf	___fladd@bexp,f
  5625     058E                     i1l2062:
  5626     058E  0A61               	incf	___fladd@bexp,w
  5627     058F  1903               	btfsc	3,2
  5628     0590  2D92               	goto	u229_21
  5629     0591  2D93               	goto	u229_20
  5630     0592                     u229_21:
  5631     0592  2D98               	goto	i1l2066
  5632     0593                     u229_20:
  5633     0593                     i1l2064:
  5634     0593  0861               	movf	___fladd@bexp,w
  5635     0594  1D03               	btfss	3,2
  5636     0595  2D97               	goto	u230_21
  5637     0596  2D98               	goto	u230_20
  5638     0597                     u230_21:
  5639     0597  2DA6               	goto	i1l2072
  5640     0598                     u230_20:
  5641     0598                     i1l2066:
  5642     0598  3000               	movlw	0
  5643     0599  00D2               	movwf	___fladd@b+3
  5644     059A  3000               	movlw	0
  5645     059B  00D1               	movwf	___fladd@b+2
  5646     059C  3000               	movlw	0
  5647     059D  00D0               	movwf	___fladd@b+1
  5648     059E  3000               	movlw	0
  5649     059F  00CF               	movwf	___fladd@b
  5650     05A0                     i1l2068:
  5651     05A0  0861               	movf	___fladd@bexp,w
  5652     05A1  1D03               	btfss	3,2
  5653     05A2  2DA4               	goto	u231_21
  5654     05A3  2DA5               	goto	u231_20
  5655     05A4                     u231_21:
  5656     05A4  2DA6               	goto	i1l2072
  5657     05A5                     u231_20:
  5658     05A5                     i1l2070:
  5659     05A5  01DF               	clrf	___fladd@signs
  5660     05A6                     i1l2072:
  5661     05A6  1C61               	btfss	___fladd@bexp,0
  5662     05A7  2DA9               	goto	u232_21
  5663     05A8  2DAA               	goto	u232_20
  5664     05A9                     u232_21:
  5665     05A9  2DAC               	goto	i1l2076
  5666     05AA                     u232_20:
  5667     05AA                     i1l2074:
  5668     05AA  17D1               	bsf	___fladd@b+2,7
  5669     05AB  2DB0               	goto	i1l2078
  5670     05AC                     i1l2076:
  5671     05AC  307F               	movlw	127
  5672     05AD  00FF               	movwf	btemp+1
  5673     05AE  087F               	movf	btemp+1,w
  5674     05AF  05D1               	andwf	___fladd@b+2,f
  5675     05B0                     i1l2078:
  5676     05B0  0861               	movf	___fladd@bexp,w
  5677     05B1  00D7               	movwf	??___fladd
  5678     05B2  1003               	clrc
  5679     05B3  0C57               	rrf	??___fladd,w
  5680     05B4  00D2               	movwf	___fladd@b+3
  5681     05B5                     i1l2080:
  5682     05B5  1FDF               	btfss	___fladd@signs,7
  5683     05B6  2DB8               	goto	u233_21
  5684     05B7  2DB9               	goto	u233_20
  5685     05B8                     u233_21:
  5686     05B8  2DBA               	goto	i1l710
  5687     05B9                     u233_20:
  5688     05B9                     i1l2082:
  5689     05B9  17D2               	bsf	___fladd@b+3,7
  5690     05BA                     i1l710:
  5691     05BA                     i1l680:
  5692     05BA  0008               	return
  5693     05BB                     __end_of___fladd:
  5694                           
  5695                           	psect	text40
  5696     0030                     __ptext40:	
  5697 ;; *************** function ___flmul *****************
  5698 ;; Defined at:
  5699 ;;		line 8 in file "C:\Program Files\Microchip\xc8\v2.45\pic\sources\c99\common\sprcmul.c"
  5700 ;; Parameters:    Size  Location     Type
  5701 ;;  b               4    0[BANK0 ] unsigned char 
  5702 ;;  a               4    4[BANK0 ] unsigned char 
  5703 ;; Auto vars:     Size  Location     Type
  5704 ;;  prod            4   15[BANK0 ] struct .
  5705 ;;  grs             4    9[BANK0 ] unsigned long 
  5706 ;;  temp            2   19[BANK0 ] struct .
  5707 ;;  bexp            1   14[BANK0 ] unsigned char 
  5708 ;;  aexp            1   13[BANK0 ] unsigned char 
  5709 ;;  sign            1    8[BANK0 ] unsigned char 
  5710 ;; Return value:  Size  Location     Type
  5711 ;;                  4    0[BANK0 ] unsigned char 
  5712 ;; Registers used:
  5713 ;;		wreg, status,2, status,0, btemp+1, pclath, cstack
  5714 ;; Tracked objects:
  5715 ;;		On entry : 0/0
  5716 ;;		On exit  : 0/0
  5717 ;;		Unchanged: 0/0
  5718 ;; Data sizes:     COMMON   BANK0   BANK1   BANK2
  5719 ;;      Params:         0       8       0       0
  5720 ;;      Locals:         0      13       0       0
  5721 ;;      Temps:          5       0       0       0
  5722 ;;      Totals:         5      21       0       0
  5723 ;;Total ram usage:       26 bytes
  5724 ;; Hardware stack levels used: 1
  5725 ;; Hardware stack levels required when called: 1
  5726 ;; This function calls:
  5727 ;;		__Umul8_16
  5728 ;; This function is called by:
  5729 ;;		_calculate_timer_counts
  5730 ;; This function uses a non-reentrant model
  5731 ;;
  5732                           
  5733     0030                     ___flmul:	
  5734                           ;psect for function ___flmul
  5735                           
  5736     0030                     i1l2288:	
  5737                           ;incstack = 0
  5738 ;; hardware stack exceeded
  5739                           ; Regs used in ___flmul: [wreg+status,2+status,0+btemp+1+pclath+cstack]
  5740                           
  5741     0030  1283               	bcf	3,5	;RP0=0, select bank0
  5742     0031  1303               	bcf	3,6	;RP1=0, select bank0
  5743     0032  0823               	movf	___flmul@b+3,w
  5744     0033  3980               	andlw	128
  5745     0034  00A8               	movwf	___flmul@sign
  5746     0035                     i1l2290:
  5747     0035  0823               	movf	___flmul@b+3,w
  5748     0036  00F9               	movwf	??___flmul
  5749     0037  0779               	addwf	??___flmul,w
  5750     0038  00AE               	movwf	___flmul@bexp
  5751     0039                     i1l2292:
  5752     0039  1FA2               	btfss	___flmul@b+2,7
  5753     003A  283C               	goto	u276_21
  5754     003B  283D               	goto	u276_20
  5755     003C                     u276_21:
  5756     003C  283E               	goto	i1l2296
  5757     003D                     u276_20:
  5758     003D                     i1l2294:
  5759     003D  142E               	bsf	___flmul@bexp,0
  5760     003E                     i1l2296:
  5761     003E  082E               	movf	___flmul@bexp,w
  5762     003F  1903               	btfsc	3,2
  5763     0040  2842               	goto	u277_21
  5764     0041  2843               	goto	u277_20
  5765     0042                     u277_21:
  5766     0042  2852               	goto	i1l2304
  5767     0043                     u277_20:
  5768     0043                     i1l2298:
  5769     0043  0A2E               	incf	___flmul@bexp,w
  5770     0044  1D03               	btfss	3,2
  5771     0045  2847               	goto	u278_21
  5772     0046  2848               	goto	u278_20
  5773     0047                     u278_21:
  5774     0047  2850               	goto	i1l2302
  5775     0048                     u278_20:
  5776     0048                     i1l2300:
  5777     0048  3000               	movlw	0
  5778     0049  00A3               	movwf	___flmul@b+3
  5779     004A  3000               	movlw	0
  5780     004B  00A2               	movwf	___flmul@b+2
  5781     004C  3000               	movlw	0
  5782     004D  00A1               	movwf	___flmul@b+1
  5783     004E  3000               	movlw	0
  5784     004F  00A0               	movwf	___flmul@b
  5785     0050                     i1l2302:
  5786     0050  17A2               	bsf	___flmul@b+2,7
  5787     0051  285A               	goto	i1l2306
  5788     0052                     i1l2304:
  5789     0052  3000               	movlw	0
  5790     0053  00A3               	movwf	___flmul@b+3
  5791     0054  3000               	movlw	0
  5792     0055  00A2               	movwf	___flmul@b+2
  5793     0056  3000               	movlw	0
  5794     0057  00A1               	movwf	___flmul@b+1
  5795     0058  3000               	movlw	0
  5796     0059  00A0               	movwf	___flmul@b
  5797     005A                     i1l2306:
  5798     005A  0827               	movf	___flmul@a+3,w
  5799     005B  3980               	andlw	128
  5800     005C  00FF               	movwf	btemp+1
  5801     005D  087F               	movf	btemp+1,w
  5802     005E  06A8               	xorwf	___flmul@sign,f
  5803     005F                     i1l2308:
  5804     005F  0827               	movf	___flmul@a+3,w
  5805     0060  00F9               	movwf	??___flmul
  5806     0061  0779               	addwf	??___flmul,w
  5807     0062  00AD               	movwf	___flmul@aexp
  5808     0063                     i1l2310:
  5809     0063  1FA6               	btfss	___flmul@a+2,7
  5810     0064  2866               	goto	u279_21
  5811     0065  2867               	goto	u279_20
  5812     0066                     u279_21:
  5813     0066  2868               	goto	i1l2314
  5814     0067                     u279_20:
  5815     0067                     i1l2312:
  5816     0067  142D               	bsf	___flmul@aexp,0
  5817     0068                     i1l2314:
  5818     0068  082D               	movf	___flmul@aexp,w
  5819     0069  1903               	btfsc	3,2
  5820     006A  286C               	goto	u280_21
  5821     006B  286D               	goto	u280_20
  5822     006C                     u280_21:
  5823     006C  287C               	goto	i1l2322
  5824     006D                     u280_20:
  5825     006D                     i1l2316:
  5826     006D  0A2D               	incf	___flmul@aexp,w
  5827     006E  1D03               	btfss	3,2
  5828     006F  2871               	goto	u281_21
  5829     0070  2872               	goto	u281_20
  5830     0071                     u281_21:
  5831     0071  287A               	goto	i1l2320
  5832     0072                     u281_20:
  5833     0072                     i1l2318:
  5834     0072  3000               	movlw	0
  5835     0073  00A7               	movwf	___flmul@a+3
  5836     0074  3000               	movlw	0
  5837     0075  00A6               	movwf	___flmul@a+2
  5838     0076  3000               	movlw	0
  5839     0077  00A5               	movwf	___flmul@a+1
  5840     0078  3000               	movlw	0
  5841     0079  00A4               	movwf	___flmul@a
  5842     007A                     i1l2320:
  5843     007A  17A6               	bsf	___flmul@a+2,7
  5844     007B  2884               	goto	i1l2324
  5845     007C                     i1l2322:
  5846     007C  3000               	movlw	0
  5847     007D  00A7               	movwf	___flmul@a+3
  5848     007E  3000               	movlw	0
  5849     007F  00A6               	movwf	___flmul@a+2
  5850     0080  3000               	movlw	0
  5851     0081  00A5               	movwf	___flmul@a+1
  5852     0082  3000               	movlw	0
  5853     0083  00A4               	movwf	___flmul@a
  5854     0084                     i1l2324:
  5855     0084  082D               	movf	___flmul@aexp,w
  5856     0085  1903               	btfsc	3,2
  5857     0086  2888               	goto	u282_21
  5858     0087  2889               	goto	u282_20
  5859     0088                     u282_21:
  5860     0088  288E               	goto	i1l2328
  5861     0089                     u282_20:
  5862     0089                     i1l2326:
  5863     0089  082E               	movf	___flmul@bexp,w
  5864     008A  1D03               	btfss	3,2
  5865     008B  288D               	goto	u283_21
  5866     008C  288E               	goto	u283_20
  5867     008D                     u283_21:
  5868     008D  2897               	goto	i1l2332
  5869     008E                     u283_20:
  5870     008E                     i1l2328:
  5871     008E  3000               	movlw	0
  5872     008F  00A3               	movwf	?___flmul+3
  5873     0090  3000               	movlw	0
  5874     0091  00A2               	movwf	?___flmul+2
  5875     0092  3000               	movlw	0
  5876     0093  00A1               	movwf	?___flmul+1
  5877     0094  3000               	movlw	0
  5878     0095  00A0               	movwf	?___flmul
  5879     0096  2B62               	goto	i1l763
  5880     0097                     i1l2332:
  5881     0097  0820               	movf	___flmul@b,w
  5882     0098  00F0               	movwf	__Umul8_16@multiplicand
  5883     0099  0826               	movf	___flmul@a+2,w
  5884     009A  158A  23B6  118A   	fcall	__Umul8_16
  5885     009D  0871               	movf	?__Umul8_16+1,w
  5886     009E  1283               	bcf	3,5	;RP0=0, select bank0
  5887     009F  1303               	bcf	3,6	;RP1=0, select bank0
  5888     00A0  00B4               	movwf	___flmul@temp+1
  5889     00A1  0870               	movf	?__Umul8_16,w
  5890     00A2  00B3               	movwf	___flmul@temp
  5891     00A3                     i1l2334:
  5892     00A3  0833               	movf	___flmul@temp,w
  5893     00A4  00F9               	movwf	??___flmul
  5894     00A5  01FA               	clrf	??___flmul+1
  5895     00A6  01FB               	clrf	??___flmul+2
  5896     00A7  01FC               	clrf	??___flmul+3
  5897     00A8  087C               	movf	??___flmul+3,w
  5898     00A9  00AC               	movwf	___flmul@grs+3
  5899     00AA  087B               	movf	??___flmul+2,w
  5900     00AB  00AB               	movwf	___flmul@grs+2
  5901     00AC  087A               	movf	??___flmul+1,w
  5902     00AD  00AA               	movwf	___flmul@grs+1
  5903     00AE  0879               	movf	??___flmul,w
  5904     00AF  00A9               	movwf	___flmul@grs
  5905     00B0                     i1l2336:
  5906     00B0  0834               	movf	___flmul@temp+1,w
  5907     00B1  00F9               	movwf	??___flmul
  5908     00B2  01FA               	clrf	??___flmul+1
  5909     00B3  01FB               	clrf	??___flmul+2
  5910     00B4  01FC               	clrf	??___flmul+3
  5911     00B5  087C               	movf	??___flmul+3,w
  5912     00B6  00B2               	movwf	___flmul@prod+3
  5913     00B7  087B               	movf	??___flmul+2,w
  5914     00B8  00B1               	movwf	___flmul@prod+2
  5915     00B9  087A               	movf	??___flmul+1,w
  5916     00BA  00B0               	movwf	___flmul@prod+1
  5917     00BB  0879               	movf	??___flmul,w
  5918     00BC  00AF               	movwf	___flmul@prod
  5919     00BD  0821               	movf	___flmul@b+1,w
  5920     00BE  00F0               	movwf	__Umul8_16@multiplicand
  5921     00BF  0825               	movf	___flmul@a+1,w
  5922     00C0  158A  23B6  118A   	fcall	__Umul8_16
  5923     00C3  0871               	movf	?__Umul8_16+1,w
  5924     00C4  1283               	bcf	3,5	;RP0=0, select bank0
  5925     00C5  1303               	bcf	3,6	;RP1=0, select bank0
  5926     00C6  00B4               	movwf	___flmul@temp+1
  5927     00C7  0870               	movf	?__Umul8_16,w
  5928     00C8  00B3               	movwf	___flmul@temp
  5929     00C9                     i1l2338:
  5930     00C9  0833               	movf	___flmul@temp,w
  5931     00CA  00F9               	movwf	??___flmul
  5932     00CB  01FA               	clrf	??___flmul+1
  5933     00CC  01FB               	clrf	??___flmul+2
  5934     00CD  01FC               	clrf	??___flmul+3
  5935     00CE  0879               	movf	??___flmul,w
  5936     00CF  07A9               	addwf	___flmul@grs,f
  5937     00D0  087A               	movf	??___flmul+1,w
  5938     00D1  1103               	clrz
  5939     00D2  1803               	skipnc
  5940     00D3  3E01               	addlw	1
  5941     00D4  1903               	skipnz
  5942     00D5  28D7               	goto	u284_21
  5943     00D6  07AA               	addwf	___flmul@grs+1,f
  5944     00D7                     u284_21:
  5945     00D7  087B               	movf	??___flmul+2,w
  5946     00D8  1103               	clrz
  5947     00D9  1803               	skipnc
  5948     00DA  3E01               	addlw	1
  5949     00DB  1903               	skipnz
  5950     00DC  28DE               	goto	u284_22
  5951     00DD  07AB               	addwf	___flmul@grs+2,f
  5952     00DE                     u284_22:
  5953     00DE  087C               	movf	??___flmul+3,w
  5954     00DF  1103               	clrz
  5955     00E0  1803               	skipnc
  5956     00E1  3E01               	addlw	1
  5957     00E2  1903               	skipnz
  5958     00E3  28E5               	goto	u284_23
  5959     00E4  07AC               	addwf	___flmul@grs+3,f
  5960     00E5                     u284_23:
  5961     00E5                     i1l2340:
  5962     00E5  0834               	movf	___flmul@temp+1,w
  5963     00E6  00F9               	movwf	??___flmul
  5964     00E7  01FA               	clrf	??___flmul+1
  5965     00E8  01FB               	clrf	??___flmul+2
  5966     00E9  01FC               	clrf	??___flmul+3
  5967     00EA  0879               	movf	??___flmul,w
  5968     00EB  07AF               	addwf	___flmul@prod,f
  5969     00EC  087A               	movf	??___flmul+1,w
  5970     00ED  1103               	clrz
  5971     00EE  1803               	skipnc
  5972     00EF  3E01               	addlw	1
  5973     00F0  1903               	skipnz
  5974     00F1  28F3               	goto	u285_21
  5975     00F2  07B0               	addwf	___flmul@prod+1,f
  5976     00F3                     u285_21:
  5977     00F3  087B               	movf	??___flmul+2,w
  5978     00F4  1103               	clrz
  5979     00F5  1803               	skipnc
  5980     00F6  3E01               	addlw	1
  5981     00F7  1903               	skipnz
  5982     00F8  28FA               	goto	u285_22
  5983     00F9  07B1               	addwf	___flmul@prod+2,f
  5984     00FA                     u285_22:
  5985     00FA  087C               	movf	??___flmul+3,w
  5986     00FB  1103               	clrz
  5987     00FC  1803               	skipnc
  5988     00FD  3E01               	addlw	1
  5989     00FE  1903               	skipnz
  5990     00FF  2901               	goto	u285_23
  5991     0100  07B2               	addwf	___flmul@prod+3,f
  5992     0101                     u285_23:
  5993     0101  0822               	movf	___flmul@b+2,w
  5994     0102  00F0               	movwf	__Umul8_16@multiplicand
  5995     0103  0824               	movf	___flmul@a,w
  5996     0104  158A  23B6  118A   	fcall	__Umul8_16
  5997     0107  0871               	movf	?__Umul8_16+1,w
  5998     0108  1283               	bcf	3,5	;RP0=0, select bank0
  5999     0109  1303               	bcf	3,6	;RP1=0, select bank0
  6000     010A  00B4               	movwf	___flmul@temp+1
  6001     010B  0870               	movf	?__Umul8_16,w
  6002     010C  00B3               	movwf	___flmul@temp
  6003     010D                     i1l2342:
  6004     010D  0833               	movf	___flmul@temp,w
  6005     010E  00F9               	movwf	??___flmul
  6006     010F  01FA               	clrf	??___flmul+1
  6007     0110  01FB               	clrf	??___flmul+2
  6008     0111  01FC               	clrf	??___flmul+3
  6009     0112  0879               	movf	??___flmul,w
  6010     0113  07A9               	addwf	___flmul@grs,f
  6011     0114  087A               	movf	??___flmul+1,w
  6012     0115  1103               	clrz
  6013     0116  1803               	skipnc
  6014     0117  3E01               	addlw	1
  6015     0118  1903               	skipnz
  6016     0119  291B               	goto	u286_21
  6017     011A  07AA               	addwf	___flmul@grs+1,f
  6018     011B                     u286_21:
  6019     011B  087B               	movf	??___flmul+2,w
  6020     011C  1103               	clrz
  6021     011D  1803               	skipnc
  6022     011E  3E01               	addlw	1
  6023     011F  1903               	skipnz
  6024     0120  2922               	goto	u286_22
  6025     0121  07AB               	addwf	___flmul@grs+2,f
  6026     0122                     u286_22:
  6027     0122  087C               	movf	??___flmul+3,w
  6028     0123  1103               	clrz
  6029     0124  1803               	skipnc
  6030     0125  3E01               	addlw	1
  6031     0126  1903               	skipnz
  6032     0127  2929               	goto	u286_23
  6033     0128  07AC               	addwf	___flmul@grs+3,f
  6034     0129                     u286_23:
  6035     0129                     i1l2344:
  6036     0129  0834               	movf	___flmul@temp+1,w
  6037     012A  00F9               	movwf	??___flmul
  6038     012B  01FA               	clrf	??___flmul+1
  6039     012C  01FB               	clrf	??___flmul+2
  6040     012D  01FC               	clrf	??___flmul+3
  6041     012E  0879               	movf	??___flmul,w
  6042     012F  07AF               	addwf	___flmul@prod,f
  6043     0130  087A               	movf	??___flmul+1,w
  6044     0131  1103               	clrz
  6045     0132  1803               	skipnc
  6046     0133  3E01               	addlw	1
  6047     0134  1903               	skipnz
  6048     0135  2937               	goto	u287_21
  6049     0136  07B0               	addwf	___flmul@prod+1,f
  6050     0137                     u287_21:
  6051     0137  087B               	movf	??___flmul+2,w
  6052     0138  1103               	clrz
  6053     0139  1803               	skipnc
  6054     013A  3E01               	addlw	1
  6055     013B  1903               	skipnz
  6056     013C  293E               	goto	u287_22
  6057     013D  07B1               	addwf	___flmul@prod+2,f
  6058     013E                     u287_22:
  6059     013E  087C               	movf	??___flmul+3,w
  6060     013F  1103               	clrz
  6061     0140  1803               	skipnc
  6062     0141  3E01               	addlw	1
  6063     0142  1903               	skipnz
  6064     0143  2945               	goto	u287_23
  6065     0144  07B2               	addwf	___flmul@prod+3,f
  6066     0145                     u287_23:
  6067     0145                     i1l2346:
  6068     0145  3008               	movlw	8
  6069     0146  00F9               	movwf	??___flmul
  6070     0147                     u288_25:
  6071     0147  1003               	clrc
  6072     0148  0DA9               	rlf	___flmul@grs,f
  6073     0149  0DAA               	rlf	___flmul@grs+1,f
  6074     014A  0DAB               	rlf	___flmul@grs+2,f
  6075     014B  0DAC               	rlf	___flmul@grs+3,f
  6076     014C  0BF9               	decfsz	??___flmul,f
  6077     014D  2947               	goto	u288_25
  6078     014E                     i1l2348:
  6079     014E  0821               	movf	___flmul@b+1,w
  6080     014F  00F0               	movwf	__Umul8_16@multiplicand
  6081     0150  0824               	movf	___flmul@a,w
  6082     0151  158A  23B6  118A   	fcall	__Umul8_16
  6083     0154  0871               	movf	?__Umul8_16+1,w
  6084     0155  1283               	bcf	3,5	;RP0=0, select bank0
  6085     0156  1303               	bcf	3,6	;RP1=0, select bank0
  6086     0157  00B4               	movwf	___flmul@temp+1
  6087     0158  0870               	movf	?__Umul8_16,w
  6088     0159  00B3               	movwf	___flmul@temp
  6089     015A                     i1l2350:
  6090     015A  0833               	movf	___flmul@temp,w
  6091     015B  00F9               	movwf	??___flmul
  6092     015C  0834               	movf	___flmul@temp+1,w
  6093     015D  00FA               	movwf	??___flmul+1
  6094     015E  01FB               	clrf	??___flmul+2
  6095     015F  01FC               	clrf	??___flmul+3
  6096     0160  0879               	movf	??___flmul,w
  6097     0161  07A9               	addwf	___flmul@grs,f
  6098     0162  087A               	movf	??___flmul+1,w
  6099     0163  1103               	clrz
  6100     0164  1803               	skipnc
  6101     0165  3E01               	addlw	1
  6102     0166  1903               	skipnz
  6103     0167  2969               	goto	u289_21
  6104     0168  07AA               	addwf	___flmul@grs+1,f
  6105     0169                     u289_21:
  6106     0169  087B               	movf	??___flmul+2,w
  6107     016A  1103               	clrz
  6108     016B  1803               	skipnc
  6109     016C  3E01               	addlw	1
  6110     016D  1903               	skipnz
  6111     016E  2970               	goto	u289_22
  6112     016F  07AB               	addwf	___flmul@grs+2,f
  6113     0170                     u289_22:
  6114     0170  087C               	movf	??___flmul+3,w
  6115     0171  1103               	clrz
  6116     0172  1803               	skipnc
  6117     0173  3E01               	addlw	1
  6118     0174  1903               	skipnz
  6119     0175  2977               	goto	u289_23
  6120     0176  07AC               	addwf	___flmul@grs+3,f
  6121     0177                     u289_23:
  6122     0177                     i1l2352:
  6123     0177  0820               	movf	___flmul@b,w
  6124     0178  00F0               	movwf	__Umul8_16@multiplicand
  6125     0179  0825               	movf	___flmul@a+1,w
  6126     017A  158A  23B6  118A   	fcall	__Umul8_16
  6127     017D  0871               	movf	?__Umul8_16+1,w
  6128     017E  1283               	bcf	3,5	;RP0=0, select bank0
  6129     017F  1303               	bcf	3,6	;RP1=0, select bank0
  6130     0180  00B4               	movwf	___flmul@temp+1
  6131     0181  0870               	movf	?__Umul8_16,w
  6132     0182  00B3               	movwf	___flmul@temp
  6133     0183                     i1l2354:
  6134     0183  0833               	movf	___flmul@temp,w
  6135     0184  00F9               	movwf	??___flmul
  6136     0185  0834               	movf	___flmul@temp+1,w
  6137     0186  00FA               	movwf	??___flmul+1
  6138     0187  01FB               	clrf	??___flmul+2
  6139     0188  01FC               	clrf	??___flmul+3
  6140     0189  0879               	movf	??___flmul,w
  6141     018A  07A9               	addwf	___flmul@grs,f
  6142     018B  087A               	movf	??___flmul+1,w
  6143     018C  1103               	clrz
  6144     018D  1803               	skipnc
  6145     018E  3E01               	addlw	1
  6146     018F  1903               	skipnz
  6147     0190  2992               	goto	u290_21
  6148     0191  07AA               	addwf	___flmul@grs+1,f
  6149     0192                     u290_21:
  6150     0192  087B               	movf	??___flmul+2,w
  6151     0193  1103               	clrz
  6152     0194  1803               	skipnc
  6153     0195  3E01               	addlw	1
  6154     0196  1903               	skipnz
  6155     0197  2999               	goto	u290_22
  6156     0198  07AB               	addwf	___flmul@grs+2,f
  6157     0199                     u290_22:
  6158     0199  087C               	movf	??___flmul+3,w
  6159     019A  1103               	clrz
  6160     019B  1803               	skipnc
  6161     019C  3E01               	addlw	1
  6162     019D  1903               	skipnz
  6163     019E  29A0               	goto	u290_23
  6164     019F  07AC               	addwf	___flmul@grs+3,f
  6165     01A0                     u290_23:
  6166     01A0                     i1l2356:
  6167     01A0  3008               	movlw	8
  6168     01A1  00F9               	movwf	??___flmul
  6169     01A2                     u291_25:
  6170     01A2  1003               	clrc
  6171     01A3  0DA9               	rlf	___flmul@grs,f
  6172     01A4  0DAA               	rlf	___flmul@grs+1,f
  6173     01A5  0DAB               	rlf	___flmul@grs+2,f
  6174     01A6  0DAC               	rlf	___flmul@grs+3,f
  6175     01A7  0BF9               	decfsz	??___flmul,f
  6176     01A8  29A2               	goto	u291_25
  6177     01A9  0820               	movf	___flmul@b,w
  6178     01AA  00F0               	movwf	__Umul8_16@multiplicand
  6179     01AB  0824               	movf	___flmul@a,w
  6180     01AC  158A  23B6  118A   	fcall	__Umul8_16
  6181     01AF  0871               	movf	?__Umul8_16+1,w
  6182     01B0  1283               	bcf	3,5	;RP0=0, select bank0
  6183     01B1  1303               	bcf	3,6	;RP1=0, select bank0
  6184     01B2  00B4               	movwf	___flmul@temp+1
  6185     01B3  0870               	movf	?__Umul8_16,w
  6186     01B4  00B3               	movwf	___flmul@temp
  6187     01B5                     i1l2358:
  6188     01B5  0833               	movf	___flmul@temp,w
  6189     01B6  00F9               	movwf	??___flmul
  6190     01B7  0834               	movf	___flmul@temp+1,w
  6191     01B8  00FA               	movwf	??___flmul+1
  6192     01B9  01FB               	clrf	??___flmul+2
  6193     01BA  01FC               	clrf	??___flmul+3
  6194     01BB  0879               	movf	??___flmul,w
  6195     01BC  07A9               	addwf	___flmul@grs,f
  6196     01BD  087A               	movf	??___flmul+1,w
  6197     01BE  1103               	clrz
  6198     01BF  1803               	skipnc
  6199     01C0  3E01               	addlw	1
  6200     01C1  1903               	skipnz
  6201     01C2  29C4               	goto	u292_21
  6202     01C3  07AA               	addwf	___flmul@grs+1,f
  6203     01C4                     u292_21:
  6204     01C4  087B               	movf	??___flmul+2,w
  6205     01C5  1103               	clrz
  6206     01C6  1803               	skipnc
  6207     01C7  3E01               	addlw	1
  6208     01C8  1903               	skipnz
  6209     01C9  29CB               	goto	u292_22
  6210     01CA  07AB               	addwf	___flmul@grs+2,f
  6211     01CB                     u292_22:
  6212     01CB  087C               	movf	??___flmul+3,w
  6213     01CC  1103               	clrz
  6214     01CD  1803               	skipnc
  6215     01CE  3E01               	addlw	1
  6216     01CF  1903               	skipnz
  6217     01D0  29D2               	goto	u292_23
  6218     01D1  07AC               	addwf	___flmul@grs+3,f
  6219     01D2                     u292_23:
  6220     01D2                     i1l2360:
  6221     01D2  0821               	movf	___flmul@b+1,w
  6222     01D3  00F0               	movwf	__Umul8_16@multiplicand
  6223     01D4  0826               	movf	___flmul@a+2,w
  6224     01D5  158A  23B6  118A   	fcall	__Umul8_16
  6225     01D8  0871               	movf	?__Umul8_16+1,w
  6226     01D9  1283               	bcf	3,5	;RP0=0, select bank0
  6227     01DA  1303               	bcf	3,6	;RP1=0, select bank0
  6228     01DB  00B4               	movwf	___flmul@temp+1
  6229     01DC  0870               	movf	?__Umul8_16,w
  6230     01DD  00B3               	movwf	___flmul@temp
  6231     01DE  0833               	movf	___flmul@temp,w
  6232     01DF  00F9               	movwf	??___flmul
  6233     01E0  0834               	movf	___flmul@temp+1,w
  6234     01E1  00FA               	movwf	??___flmul+1
  6235     01E2  01FB               	clrf	??___flmul+2
  6236     01E3  01FC               	clrf	??___flmul+3
  6237     01E4  0879               	movf	??___flmul,w
  6238     01E5  07AF               	addwf	___flmul@prod,f
  6239     01E6  087A               	movf	??___flmul+1,w
  6240     01E7  1103               	clrz
  6241     01E8  1803               	skipnc
  6242     01E9  3E01               	addlw	1
  6243     01EA  1903               	skipnz
  6244     01EB  29ED               	goto	u293_21
  6245     01EC  07B0               	addwf	___flmul@prod+1,f
  6246     01ED                     u293_21:
  6247     01ED  087B               	movf	??___flmul+2,w
  6248     01EE  1103               	clrz
  6249     01EF  1803               	skipnc
  6250     01F0  3E01               	addlw	1
  6251     01F1  1903               	skipnz
  6252     01F2  29F4               	goto	u293_22
  6253     01F3  07B1               	addwf	___flmul@prod+2,f
  6254     01F4                     u293_22:
  6255     01F4  087C               	movf	??___flmul+3,w
  6256     01F5  1103               	clrz
  6257     01F6  1803               	skipnc
  6258     01F7  3E01               	addlw	1
  6259     01F8  1903               	skipnz
  6260     01F9  29FB               	goto	u293_23
  6261     01FA  07B2               	addwf	___flmul@prod+3,f
  6262     01FB                     u293_23:
  6263     01FB                     i1l2362:
  6264     01FB  0822               	movf	___flmul@b+2,w
  6265     01FC  00F0               	movwf	__Umul8_16@multiplicand
  6266     01FD  0825               	movf	___flmul@a+1,w
  6267     01FE  158A  23B6  118A   	fcall	__Umul8_16
  6268     0201  0871               	movf	?__Umul8_16+1,w
  6269     0202  1283               	bcf	3,5	;RP0=0, select bank0
  6270     0203  1303               	bcf	3,6	;RP1=0, select bank0
  6271     0204  00B4               	movwf	___flmul@temp+1
  6272     0205  0870               	movf	?__Umul8_16,w
  6273     0206  00B3               	movwf	___flmul@temp
  6274     0207                     i1l2364:
  6275     0207  0833               	movf	___flmul@temp,w
  6276     0208  00F9               	movwf	??___flmul
  6277     0209  0834               	movf	___flmul@temp+1,w
  6278     020A  00FA               	movwf	??___flmul+1
  6279     020B  01FB               	clrf	??___flmul+2
  6280     020C  01FC               	clrf	??___flmul+3
  6281     020D  0879               	movf	??___flmul,w
  6282     020E  07AF               	addwf	___flmul@prod,f
  6283     020F  087A               	movf	??___flmul+1,w
  6284     0210  1103               	clrz
  6285     0211  1803               	skipnc
  6286     0212  3E01               	addlw	1
  6287     0213  1903               	skipnz
  6288     0214  2A16               	goto	u294_21
  6289     0215  07B0               	addwf	___flmul@prod+1,f
  6290     0216                     u294_21:
  6291     0216  087B               	movf	??___flmul+2,w
  6292     0217  1103               	clrz
  6293     0218  1803               	skipnc
  6294     0219  3E01               	addlw	1
  6295     021A  1903               	skipnz
  6296     021B  2A1D               	goto	u294_22
  6297     021C  07B1               	addwf	___flmul@prod+2,f
  6298     021D                     u294_22:
  6299     021D  087C               	movf	??___flmul+3,w
  6300     021E  1103               	clrz
  6301     021F  1803               	skipnc
  6302     0220  3E01               	addlw	1
  6303     0221  1903               	skipnz
  6304     0222  2A24               	goto	u294_23
  6305     0223  07B2               	addwf	___flmul@prod+3,f
  6306     0224                     u294_23:
  6307     0224  0822               	movf	___flmul@b+2,w
  6308     0225  00F0               	movwf	__Umul8_16@multiplicand
  6309     0226  0826               	movf	___flmul@a+2,w
  6310     0227  158A  23B6  118A   	fcall	__Umul8_16
  6311     022A  0871               	movf	?__Umul8_16+1,w
  6312     022B  1283               	bcf	3,5	;RP0=0, select bank0
  6313     022C  1303               	bcf	3,6	;RP1=0, select bank0
  6314     022D  00B4               	movwf	___flmul@temp+1
  6315     022E  0870               	movf	?__Umul8_16,w
  6316     022F  00B3               	movwf	___flmul@temp
  6317     0230                     i1l2366:
  6318     0230  0833               	movf	___flmul@temp,w
  6319     0231  00F9               	movwf	??___flmul
  6320     0232  0834               	movf	___flmul@temp+1,w
  6321     0233  00FA               	movwf	??___flmul+1
  6322     0234  01FB               	clrf	??___flmul+2
  6323     0235  01FC               	clrf	??___flmul+3
  6324     0236  3008               	movlw	8
  6325     0237                     u295_25:
  6326     0237  1003               	clrc
  6327     0238  0DF9               	rlf	??___flmul,f
  6328     0239  0DFA               	rlf	??___flmul+1,f
  6329     023A  0DFB               	rlf	??___flmul+2,f
  6330     023B  0DFC               	rlf	??___flmul+3,f
  6331     023C                     u295_20:
  6332     023C  3EFF               	addlw	-1
  6333     023D  1D03               	skipz
  6334     023E  2A37               	goto	u295_25
  6335     023F  0879               	movf	??___flmul,w
  6336     0240  07AF               	addwf	___flmul@prod,f
  6337     0241  087A               	movf	??___flmul+1,w
  6338     0242  1103               	clrz
  6339     0243  1803               	skipnc
  6340     0244  3E01               	addlw	1
  6341     0245  1903               	skipnz
  6342     0246  2A48               	goto	u296_21
  6343     0247  07B0               	addwf	___flmul@prod+1,f
  6344     0248                     u296_21:
  6345     0248  087B               	movf	??___flmul+2,w
  6346     0249  1103               	clrz
  6347     024A  1803               	skipnc
  6348     024B  3E01               	addlw	1
  6349     024C  1903               	skipnz
  6350     024D  2A4F               	goto	u296_22
  6351     024E  07B1               	addwf	___flmul@prod+2,f
  6352     024F                     u296_22:
  6353     024F  087C               	movf	??___flmul+3,w
  6354     0250  1103               	clrz
  6355     0251  1803               	skipnc
  6356     0252  3E01               	addlw	1
  6357     0253  1903               	skipnz
  6358     0254  2A56               	goto	u296_23
  6359     0255  07B2               	addwf	___flmul@prod+3,f
  6360     0256                     u296_23:
  6361     0256                     i1l2368:
  6362     0256  0829               	movf	___flmul@grs,w
  6363     0257  00F9               	movwf	??___flmul
  6364     0258  082A               	movf	___flmul@grs+1,w
  6365     0259  00FA               	movwf	??___flmul+1
  6366     025A  082B               	movf	___flmul@grs+2,w
  6367     025B  00FB               	movwf	??___flmul+2
  6368     025C  082C               	movf	___flmul@grs+3,w
  6369     025D  00FC               	movwf	??___flmul+3
  6370     025E  3018               	movlw	24
  6371     025F                     u297_25:
  6372     025F  1003               	clrc
  6373     0260  0CFC               	rrf	??___flmul+3,f
  6374     0261  0CFB               	rrf	??___flmul+2,f
  6375     0262  0CFA               	rrf	??___flmul+1,f
  6376     0263  0CF9               	rrf	??___flmul,f
  6377     0264                     u297_20:
  6378     0264  3EFF               	addlw	-1
  6379     0265  1D03               	skipz
  6380     0266  2A5F               	goto	u297_25
  6381     0267  0879               	movf	??___flmul,w
  6382     0268  07AF               	addwf	___flmul@prod,f
  6383     0269  087A               	movf	??___flmul+1,w
  6384     026A  1103               	clrz
  6385     026B  1803               	skipnc
  6386     026C  3E01               	addlw	1
  6387     026D  1903               	skipnz
  6388     026E  2A70               	goto	u298_21
  6389     026F  07B0               	addwf	___flmul@prod+1,f
  6390     0270                     u298_21:
  6391     0270  087B               	movf	??___flmul+2,w
  6392     0271  1103               	clrz
  6393     0272  1803               	skipnc
  6394     0273  3E01               	addlw	1
  6395     0274  1903               	skipnz
  6396     0275  2A77               	goto	u298_22
  6397     0276  07B1               	addwf	___flmul@prod+2,f
  6398     0277                     u298_22:
  6399     0277  087C               	movf	??___flmul+3,w
  6400     0278  1103               	clrz
  6401     0279  1803               	skipnc
  6402     027A  3E01               	addlw	1
  6403     027B  1903               	skipnz
  6404     027C  2A7E               	goto	u298_23
  6405     027D  07B2               	addwf	___flmul@prod+3,f
  6406     027E                     u298_23:
  6407     027E                     i1l2370:
  6408     027E  3008               	movlw	8
  6409     027F  00F9               	movwf	??___flmul
  6410     0280                     u299_25:
  6411     0280  1003               	clrc
  6412     0281  0DA9               	rlf	___flmul@grs,f
  6413     0282  0DAA               	rlf	___flmul@grs+1,f
  6414     0283  0DAB               	rlf	___flmul@grs+2,f
  6415     0284  0DAC               	rlf	___flmul@grs+3,f
  6416     0285  0BF9               	decfsz	??___flmul,f
  6417     0286  2A80               	goto	u299_25
  6418     0287                     i1l2372:
  6419     0287  082E               	movf	___flmul@bexp,w
  6420     0288  072D               	addwf	___flmul@aexp,w
  6421     0289  00F9               	movwf	??___flmul
  6422     028A  01FA               	clrf	??___flmul+1
  6423     028B  0DFA               	rlf	??___flmul+1,f
  6424     028C  0879               	movf	??___flmul,w
  6425     028D  3E82               	addlw	130
  6426     028E  00B3               	movwf	___flmul@temp
  6427     028F  087A               	movf	??___flmul+1,w
  6428     0290  1803               	skipnc
  6429     0291  3E01               	addlw	1
  6430     0292  3EFF               	addlw	255
  6431     0293  00B4               	movwf	___flmul@temp+1
  6432     0294  2AB2               	goto	i1l2384
  6433     0295                     i1l2374:
  6434     0295  3001               	movlw	1
  6435     0296  00F9               	movwf	??___flmul
  6436     0297                     u300_25:
  6437     0297  1003               	clrc
  6438     0298  0DAF               	rlf	___flmul@prod,f
  6439     0299  0DB0               	rlf	___flmul@prod+1,f
  6440     029A  0DB1               	rlf	___flmul@prod+2,f
  6441     029B  0DB2               	rlf	___flmul@prod+3,f
  6442     029C  0BF9               	decfsz	??___flmul,f
  6443     029D  2A97               	goto	u300_25
  6444     029E                     i1l2376:
  6445     029E  1FAC               	btfss	___flmul@grs+3,7
  6446     029F  2AA1               	goto	u301_21
  6447     02A0  2AA2               	goto	u301_20
  6448     02A1                     u301_21:
  6449     02A1  2AA3               	goto	i1l2380
  6450     02A2                     u301_20:
  6451     02A2                     i1l2378:
  6452     02A2  142F               	bsf	___flmul@prod,0
  6453     02A3                     i1l2380:
  6454     02A3  3001               	movlw	1
  6455     02A4  00F9               	movwf	??___flmul
  6456     02A5                     u302_25:
  6457     02A5  1003               	clrc
  6458     02A6  0DA9               	rlf	___flmul@grs,f
  6459     02A7  0DAA               	rlf	___flmul@grs+1,f
  6460     02A8  0DAB               	rlf	___flmul@grs+2,f
  6461     02A9  0DAC               	rlf	___flmul@grs+3,f
  6462     02AA  0BF9               	decfsz	??___flmul,f
  6463     02AB  2AA5               	goto	u302_25
  6464     02AC                     i1l2382:
  6465     02AC  30FF               	movlw	255
  6466     02AD  07B3               	addwf	___flmul@temp,f
  6467     02AE  1803               	skipnc
  6468     02AF  0AB4               	incf	___flmul@temp+1,f
  6469     02B0  30FF               	movlw	255
  6470     02B1  07B4               	addwf	___flmul@temp+1,f
  6471     02B2                     i1l2384:
  6472     02B2  1FB1               	btfss	___flmul@prod+2,7
  6473     02B3  2AB5               	goto	u303_21
  6474     02B4  2AB6               	goto	u303_20
  6475     02B5                     u303_21:
  6476     02B5  2A95               	goto	i1l2374
  6477     02B6                     u303_20:
  6478     02B6                     i1l2386:
  6479     02B6  01AD               	clrf	___flmul@aexp
  6480     02B7                     i1l2388:
  6481     02B7  1FAC               	btfss	___flmul@grs+3,7
  6482     02B8  2ABA               	goto	u304_21
  6483     02B9  2ABB               	goto	u304_20
  6484     02BA                     u304_21:
  6485     02BA  2AD7               	goto	i1l2396
  6486     02BB                     u304_20:
  6487     02BB                     i1l2390:
  6488     02BB  30FF               	movlw	255
  6489     02BC  0529               	andwf	___flmul@grs,w
  6490     02BD  00F9               	movwf	??___flmul
  6491     02BE  30FF               	movlw	255
  6492     02BF  052A               	andwf	___flmul@grs+1,w
  6493     02C0  00FA               	movwf	??___flmul+1
  6494     02C1  30FF               	movlw	255
  6495     02C2  052B               	andwf	___flmul@grs+2,w
  6496     02C3  00FB               	movwf	??___flmul+2
  6497     02C4  307F               	movlw	127
  6498     02C5  052C               	andwf	___flmul@grs+3,w
  6499     02C6  00FC               	movwf	??___flmul+3
  6500     02C7  087C               	movf	??___flmul+3,w
  6501     02C8  047B               	iorwf	??___flmul+2,w
  6502     02C9  047A               	iorwf	??___flmul+1,w
  6503     02CA  0479               	iorwf	??___flmul,w
  6504     02CB  1903               	skipnz
  6505     02CC  2ACE               	goto	u305_21
  6506     02CD  2ACF               	goto	u305_20
  6507     02CE                     u305_21:
  6508     02CE  2AD2               	goto	i1l769
  6509     02CF                     u305_20:
  6510     02CF                     i1l2392:
  6511     02CF  01AD               	clrf	___flmul@aexp
  6512     02D0  0AAD               	incf	___flmul@aexp,f
  6513     02D1  2AD7               	goto	i1l2396
  6514     02D2                     i1l769:
  6515     02D2  1C2F               	btfss	___flmul@prod,0
  6516     02D3  2AD5               	goto	u306_21
  6517     02D4  2AD6               	goto	u306_20
  6518     02D5                     u306_21:
  6519     02D5  2AD7               	goto	i1l2396
  6520     02D6                     u306_20:
  6521     02D6  2ACF               	goto	i1l2392
  6522     02D7                     i1l2396:
  6523     02D7  082D               	movf	___flmul@aexp,w
  6524     02D8  1903               	btfsc	3,2
  6525     02D9  2ADB               	goto	u307_21
  6526     02DA  2ADC               	goto	u307_20
  6527     02DB                     u307_21:
  6528     02DB  2B0D               	goto	i1l2406
  6529     02DC                     u307_20:
  6530     02DC                     i1l2398:
  6531     02DC  3001               	movlw	1
  6532     02DD  07AF               	addwf	___flmul@prod,f
  6533     02DE  3000               	movlw	0
  6534     02DF  1803               	skipnc
  6535     02E0  3001               	movlw	1
  6536     02E1  07B0               	addwf	___flmul@prod+1,f
  6537     02E2  3000               	movlw	0
  6538     02E3  1803               	skipnc
  6539     02E4  3001               	movlw	1
  6540     02E5  07B1               	addwf	___flmul@prod+2,f
  6541     02E6  3000               	movlw	0
  6542     02E7  1803               	skipnc
  6543     02E8  3001               	movlw	1
  6544     02E9  07B2               	addwf	___flmul@prod+3,f
  6545     02EA                     i1l2400:
  6546     02EA  1C32               	btfss	___flmul@prod+3,0
  6547     02EB  2AED               	goto	u308_21
  6548     02EC  2AEE               	goto	u308_20
  6549     02ED                     u308_21:
  6550     02ED  2B0D               	goto	i1l2406
  6551     02EE                     u308_20:
  6552     02EE                     i1l2402:
  6553     02EE  082F               	movf	___flmul@prod,w
  6554     02EF  00F9               	movwf	??___flmul
  6555     02F0  0830               	movf	___flmul@prod+1,w
  6556     02F1  00FA               	movwf	??___flmul+1
  6557     02F2  0831               	movf	___flmul@prod+2,w
  6558     02F3  00FB               	movwf	??___flmul+2
  6559     02F4  0832               	movf	___flmul@prod+3,w
  6560     02F5  00FC               	movwf	??___flmul+3
  6561     02F6  3001               	movlw	1
  6562     02F7  00FD               	movwf	??___flmul+4
  6563     02F8                     u309_25:
  6564     02F8  0D7C               	rlf	??___flmul+3,w
  6565     02F9  0CFC               	rrf	??___flmul+3,f
  6566     02FA  0CFB               	rrf	??___flmul+2,f
  6567     02FB  0CFA               	rrf	??___flmul+1,f
  6568     02FC  0CF9               	rrf	??___flmul,f
  6569     02FD                     u309_20:
  6570     02FD  0BFD               	decfsz	??___flmul+4,f
  6571     02FE  2AF8               	goto	u309_25
  6572     02FF  087C               	movf	??___flmul+3,w
  6573     0300  00B2               	movwf	___flmul@prod+3
  6574     0301  087B               	movf	??___flmul+2,w
  6575     0302  00B1               	movwf	___flmul@prod+2
  6576     0303  087A               	movf	??___flmul+1,w
  6577     0304  00B0               	movwf	___flmul@prod+1
  6578     0305  0879               	movf	??___flmul,w
  6579     0306  00AF               	movwf	___flmul@prod
  6580     0307                     i1l2404:
  6581     0307  3001               	movlw	1
  6582     0308  07B3               	addwf	___flmul@temp,f
  6583     0309  1803               	skipnc
  6584     030A  0AB4               	incf	___flmul@temp+1,f
  6585     030B  3000               	movlw	0
  6586     030C  07B4               	addwf	___flmul@temp+1,f
  6587     030D                     i1l2406:
  6588     030D  0834               	movf	___flmul@temp+1,w
  6589     030E  3A80               	xorlw	128
  6590     030F  00FF               	movwf	btemp+1
  6591     0310  3080               	movlw	128
  6592     0311  027F               	subwf	btemp+1,w
  6593     0312  1D03               	skipz
  6594     0313  2B16               	goto	u310_25
  6595     0314  30FF               	movlw	255
  6596     0315  0233               	subwf	___flmul@temp,w
  6597     0316                     u310_25:
  6598     0316  1C03               	skipc
  6599     0317  2B19               	goto	u310_21
  6600     0318  2B1A               	goto	u310_20
  6601     0319                     u310_21:
  6602     0319  2B25               	goto	i1l2410
  6603     031A                     u310_20:
  6604     031A                     i1l2408:
  6605     031A  307F               	movlw	127
  6606     031B  1283               	bcf	3,5	;RP0=0, select bank0
  6607     031C  1303               	bcf	3,6	;RP1=0, select bank0
  6608     031D  00B2               	movwf	___flmul@prod+3
  6609     031E  3080               	movlw	128
  6610     031F  00B1               	movwf	___flmul@prod+2
  6611     0320  3000               	movlw	0
  6612     0321  00B0               	movwf	___flmul@prod+1
  6613     0322  3000               	movlw	0
  6614     0323  00AF               	movwf	___flmul@prod
  6615     0324  2B56               	goto	i1l2424
  6616     0325                     i1l2410:
  6617     0325  1283               	bcf	3,5	;RP0=0, select bank0
  6618     0326  1303               	bcf	3,6	;RP1=0, select bank0
  6619     0327  0834               	movf	___flmul@temp+1,w
  6620     0328  3A80               	xorlw	128
  6621     0329  00FF               	movwf	btemp+1
  6622     032A  3080               	movlw	128
  6623     032B  027F               	subwf	btemp+1,w
  6624     032C  1D03               	skipz
  6625     032D  2B30               	goto	u311_25
  6626     032E  3001               	movlw	1
  6627     032F  0233               	subwf	___flmul@temp,w
  6628     0330                     u311_25:
  6629     0330  1803               	skipnc
  6630     0331  2B33               	goto	u311_21
  6631     0332  2B34               	goto	u311_20
  6632     0333                     u311_21:
  6633     0333  2B40               	goto	i1l2416
  6634     0334                     u311_20:
  6635     0334                     i1l2412:
  6636     0334  3000               	movlw	0
  6637     0335  1283               	bcf	3,5	;RP0=0, select bank0
  6638     0336  1303               	bcf	3,6	;RP1=0, select bank0
  6639     0337  00B2               	movwf	___flmul@prod+3
  6640     0338  3000               	movlw	0
  6641     0339  00B1               	movwf	___flmul@prod+2
  6642     033A  3000               	movlw	0
  6643     033B  00B0               	movwf	___flmul@prod+1
  6644     033C  3000               	movlw	0
  6645     033D  00AF               	movwf	___flmul@prod
  6646     033E                     i1l2414:
  6647     033E  01A8               	clrf	___flmul@sign
  6648     033F  2B56               	goto	i1l2424
  6649     0340                     i1l2416:
  6650     0340  1283               	bcf	3,5	;RP0=0, select bank0
  6651     0341  1303               	bcf	3,6	;RP1=0, select bank0
  6652     0342  0833               	movf	___flmul@temp,w
  6653     0343  00AE               	movwf	___flmul@bexp
  6654     0344  30FF               	movlw	255
  6655     0345  05AF               	andwf	___flmul@prod,f
  6656     0346  30FF               	movlw	255
  6657     0347  05B0               	andwf	___flmul@prod+1,f
  6658     0348  307F               	movlw	127
  6659     0349  05B1               	andwf	___flmul@prod+2,f
  6660     034A  3000               	movlw	0
  6661     034B  05B2               	andwf	___flmul@prod+3,f
  6662     034C                     i1l2418:
  6663     034C  1C2E               	btfss	___flmul@bexp,0
  6664     034D  2B4F               	goto	u312_21
  6665     034E  2B50               	goto	u312_20
  6666     034F                     u312_21:
  6667     034F  2B51               	goto	i1l2422
  6668     0350                     u312_20:
  6669     0350                     i1l2420:
  6670     0350  17B1               	bsf	___flmul@prod+2,7
  6671     0351                     i1l2422:
  6672     0351  082E               	movf	___flmul@bexp,w
  6673     0352  00F9               	movwf	??___flmul
  6674     0353  1003               	clrc
  6675     0354  0C79               	rrf	??___flmul,w
  6676     0355  00B2               	movwf	___flmul@prod+3
  6677     0356                     i1l2424:
  6678     0356  0828               	movf	___flmul@sign,w
  6679     0357  00FF               	movwf	btemp+1
  6680     0358  087F               	movf	btemp+1,w
  6681     0359  04B2               	iorwf	___flmul@prod+3,f
  6682     035A                     i1l2426:
  6683     035A  0832               	movf	___flmul@prod+3,w
  6684     035B  00A3               	movwf	?___flmul+3
  6685     035C  0831               	movf	___flmul@prod+2,w
  6686     035D  00A2               	movwf	?___flmul+2
  6687     035E  0830               	movf	___flmul@prod+1,w
  6688     035F  00A1               	movwf	?___flmul+1
  6689     0360  082F               	movf	___flmul@prod,w
  6690     0361  00A0               	movwf	?___flmul
  6691     0362                     i1l763:
  6692     0362  0008               	return
  6693     0363                     __end_of___flmul:
  6694                           
  6695                           	psect	text41
  6696     0BB6                     __ptext41:	
  6697 ;; *************** function __Umul8_16 *****************
  6698 ;; Defined at:
  6699 ;;		line 4 in file "C:\Program Files\Microchip\xc8\v2.45\pic\sources\c99\common\Umul8_16.c"
  6700 ;; Parameters:    Size  Location     Type
  6701 ;;  multiplier      1    wreg     unsigned char 
  6702 ;;  multiplicand    1    0[COMMON] unsigned char 
  6703 ;; Auto vars:     Size  Location     Type
  6704 ;;  multiplier      1    8[COMMON] unsigned char 
  6705 ;;  word_mpld       2    6[COMMON] unsigned short 
  6706 ;;  product         2    4[COMMON] unsigned short 
  6707 ;; Return value:  Size  Location     Type
  6708 ;;                  2    0[COMMON] unsigned int 
  6709 ;; Registers used:
  6710 ;;		wreg, status,2, status,0
  6711 ;; Tracked objects:
  6712 ;;		On entry : 0/0
  6713 ;;		On exit  : 0/0
  6714 ;;		Unchanged: 0/0
  6715 ;; Data sizes:     COMMON   BANK0   BANK1   BANK2
  6716 ;;      Params:         2       0       0       0
  6717 ;;      Locals:         5       0       0       0
  6718 ;;      Temps:          2       0       0       0
  6719 ;;      Totals:         9       0       0       0
  6720 ;;Total ram usage:        9 bytes
  6721 ;; Hardware stack levels used: 1
  6722 ;; This function calls:
  6723 ;;		Nothing
  6724 ;; This function is called by:
  6725 ;;		___flmul
  6726 ;; This function uses a non-reentrant model
  6727 ;;
  6728                           
  6729     0BB6                     __Umul8_16:	
  6730                           ;psect for function __Umul8_16
  6731                           
  6732                           
  6733                           ;incstack = 0
  6734 ;; hardware stack exceeded
  6735                           ; Regs used in __Umul8_16: [wreg+status,2+status,0]
  6736                           ;__Umul8_16@multiplier stored from wreg
  6737     0BB6  00F8               	movwf	__Umul8_16@multiplier
  6738     0BB7                     i1l2084:
  6739     0BB7  01F4               	clrf	__Umul8_16@product
  6740     0BB8  01F5               	clrf	__Umul8_16@product+1
  6741     0BB9                     i1l2086:
  6742     0BB9  0870               	movf	__Umul8_16@multiplicand,w
  6743     0BBA  00F2               	movwf	??__Umul8_16
  6744     0BBB  01F3               	clrf	??__Umul8_16+1
  6745     0BBC  0872               	movf	??__Umul8_16,w
  6746     0BBD  00F6               	movwf	__Umul8_16@word_mpld
  6747     0BBE  0873               	movf	??__Umul8_16+1,w
  6748     0BBF  00F7               	movwf	__Umul8_16@word_mpld+1
  6749     0BC0                     i1l2088:
  6750     0BC0  1C78               	btfss	__Umul8_16@multiplier,0
  6751     0BC1  2BC3               	goto	u234_21
  6752     0BC2  2BC4               	goto	u234_20
  6753     0BC3                     u234_21:
  6754     0BC3  2BCA               	goto	i1l782
  6755     0BC4                     u234_20:
  6756     0BC4                     i1l2090:
  6757     0BC4  0876               	movf	__Umul8_16@word_mpld,w
  6758     0BC5  07F4               	addwf	__Umul8_16@product,f
  6759     0BC6  1803               	skipnc
  6760     0BC7  0AF5               	incf	__Umul8_16@product+1,f
  6761     0BC8  0877               	movf	__Umul8_16@word_mpld+1,w
  6762     0BC9  07F5               	addwf	__Umul8_16@product+1,f
  6763     0BCA                     i1l782:
  6764     0BCA  3001               	movlw	1
  6765     0BCB                     u235_25:
  6766     0BCB  1003               	clrc
  6767     0BCC  0DF6               	rlf	__Umul8_16@word_mpld,f
  6768     0BCD  0DF7               	rlf	__Umul8_16@word_mpld+1,f
  6769     0BCE  3EFF               	addlw	-1
  6770     0BCF  1D03               	skipz
  6771     0BD0  2BCB               	goto	u235_25
  6772     0BD1  1003               	clrc
  6773     0BD2  0CF8               	rrf	__Umul8_16@multiplier,f
  6774     0BD3                     i1l2092:
  6775     0BD3  0878               	movf	__Umul8_16@multiplier,w
  6776     0BD4  1D03               	btfss	3,2
  6777     0BD5  2BD7               	goto	u236_21
  6778     0BD6  2BD8               	goto	u236_20
  6779     0BD7                     u236_21:
  6780     0BD7  2BC0               	goto	i1l2088
  6781     0BD8                     u236_20:
  6782     0BD8                     i1l2094:
  6783     0BD8  0875               	movf	__Umul8_16@product+1,w
  6784     0BD9  00F1               	movwf	?__Umul8_16+1
  6785     0BDA  0874               	movf	__Umul8_16@product,w
  6786     0BDB  00F0               	movwf	?__Umul8_16
  6787     0BDC                     i1l784:
  6788     0BDC  0008               	return
  6789     0BDD                     __end_of__Umul8_16:
  6790                           
  6791                           	psect	text42
  6792     05BB                     __ptext42:	
  6793 ;; *************** function ___fldiv *****************
  6794 ;; Defined at:
  6795 ;;		line 8 in file "C:\Program Files\Microchip\xc8\v2.45\pic\sources\c99\common\sprcdiv.c"
  6796 ;; Parameters:    Size  Location     Type
  6797 ;;  a               4   21[BANK0 ] unsigned int 
  6798 ;;  b               4   25[BANK0 ] unsigned int 
  6799 ;; Auto vars:     Size  Location     Type
  6800 ;;  grs             4   41[BANK0 ] unsigned long 
  6801 ;;  rem             4   34[BANK0 ] unsigned long 
  6802 ;;  new_exp         2   39[BANK0 ] short 
  6803 ;;  aexp            1   46[BANK0 ] unsigned char 
  6804 ;;  bexp            1   45[BANK0 ] unsigned char 
  6805 ;;  sign            1   38[BANK0 ] unsigned char 
  6806 ;; Return value:  Size  Location     Type
  6807 ;;                  4   21[BANK0 ] unsigned char 
  6808 ;; Registers used:
  6809 ;;		wreg, status,2, status,0, btemp+1
  6810 ;; Tracked objects:
  6811 ;;		On entry : 0/0
  6812 ;;		On exit  : 0/0
  6813 ;;		Unchanged: 0/0
  6814 ;; Data sizes:     COMMON   BANK0   BANK1   BANK2
  6815 ;;      Params:         0       8       0       0
  6816 ;;      Locals:         0      13       0       0
  6817 ;;      Temps:          0       5       0       0
  6818 ;;      Totals:         0      26       0       0
  6819 ;;Total ram usage:       26 bytes
  6820 ;; Hardware stack levels used: 1
  6821 ;; This function calls:
  6822 ;;		Nothing
  6823 ;; This function is called by:
  6824 ;;		_calculate_timer_counts
  6825 ;; This function uses a non-reentrant model
  6826 ;;
  6827                           
  6828     05BB                     ___fldiv:	
  6829                           ;psect for function ___fldiv
  6830                           
  6831     05BB                     i1l2142:	
  6832                           ;incstack = 0
  6833                           ; Regs used in ___fldiv: [wreg+status,2+status,0+btemp+1]
  6834                           
  6835     05BB  1283               	bcf	3,5	;RP0=0, select bank0
  6836     05BC  1303               	bcf	3,6	;RP1=0, select bank0
  6837     05BD  083C               	movf	___fldiv@b+3,w
  6838     05BE  3980               	andlw	128
  6839     05BF  00C6               	movwf	___fldiv@sign
  6840     05C0                     i1l2144:
  6841     05C0  083C               	movf	___fldiv@b+3,w
  6842     05C1  00BD               	movwf	??___fldiv
  6843     05C2  073D               	addwf	??___fldiv,w
  6844     05C3  00CD               	movwf	___fldiv@bexp
  6845     05C4                     i1l2146:
  6846     05C4  1FBB               	btfss	___fldiv@b+2,7
  6847     05C5  2DC7               	goto	u247_21
  6848     05C6  2DC8               	goto	u247_20
  6849     05C7                     u247_21:
  6850     05C7  2DC9               	goto	i1l2150
  6851     05C8                     u247_20:
  6852     05C8                     i1l2148:
  6853     05C8  144D               	bsf	___fldiv@bexp,0
  6854     05C9                     i1l2150:
  6855     05C9  084D               	movf	___fldiv@bexp,w
  6856     05CA  1903               	btfsc	3,2
  6857     05CB  2DCD               	goto	u248_21
  6858     05CC  2DCE               	goto	u248_20
  6859     05CD                     u248_21:
  6860     05CD  2DDE               	goto	i1l2160
  6861     05CE                     u248_20:
  6862     05CE                     i1l2152:
  6863     05CE  0A4D               	incf	___fldiv@bexp,w
  6864     05CF  1D03               	btfss	3,2
  6865     05D0  2DD2               	goto	u249_21
  6866     05D1  2DD3               	goto	u249_20
  6867     05D2                     u249_21:
  6868     05D2  2DDB               	goto	i1l2156
  6869     05D3                     u249_20:
  6870     05D3                     i1l2154:
  6871     05D3  3000               	movlw	0
  6872     05D4  00BC               	movwf	___fldiv@b+3
  6873     05D5  3000               	movlw	0
  6874     05D6  00BB               	movwf	___fldiv@b+2
  6875     05D7  3000               	movlw	0
  6876     05D8  00BA               	movwf	___fldiv@b+1
  6877     05D9  3000               	movlw	0
  6878     05DA  00B9               	movwf	___fldiv@b
  6879     05DB                     i1l2156:
  6880     05DB  17BB               	bsf	___fldiv@b+2,7
  6881     05DC                     i1l2158:
  6882     05DC  01BC               	clrf	___fldiv@b+3
  6883     05DD  2DE6               	goto	i1l2162
  6884     05DE                     i1l2160:
  6885     05DE  3000               	movlw	0
  6886     05DF  00BC               	movwf	___fldiv@b+3
  6887     05E0  3000               	movlw	0
  6888     05E1  00BB               	movwf	___fldiv@b+2
  6889     05E2  3000               	movlw	0
  6890     05E3  00BA               	movwf	___fldiv@b+1
  6891     05E4  3000               	movlw	0
  6892     05E5  00B9               	movwf	___fldiv@b
  6893     05E6                     i1l2162:
  6894     05E6  0838               	movf	___fldiv@a+3,w
  6895     05E7  3980               	andlw	128
  6896     05E8  00FF               	movwf	btemp+1
  6897     05E9  087F               	movf	btemp+1,w
  6898     05EA  06C6               	xorwf	___fldiv@sign,f
  6899     05EB                     i1l2164:
  6900     05EB  0838               	movf	___fldiv@a+3,w
  6901     05EC  00BD               	movwf	??___fldiv
  6902     05ED  073D               	addwf	??___fldiv,w
  6903     05EE  00CE               	movwf	___fldiv@aexp
  6904     05EF                     i1l2166:
  6905     05EF  1FB7               	btfss	___fldiv@a+2,7
  6906     05F0  2DF2               	goto	u250_21
  6907     05F1  2DF3               	goto	u250_20
  6908     05F2                     u250_21:
  6909     05F2  2DF4               	goto	i1l2170
  6910     05F3                     u250_20:
  6911     05F3                     i1l2168:
  6912     05F3  144E               	bsf	___fldiv@aexp,0
  6913     05F4                     i1l2170:
  6914     05F4  084E               	movf	___fldiv@aexp,w
  6915     05F5  1903               	btfsc	3,2
  6916     05F6  2DF8               	goto	u251_21
  6917     05F7  2DF9               	goto	u251_20
  6918     05F8                     u251_21:
  6919     05F8  2E09               	goto	i1l2180
  6920     05F9                     u251_20:
  6921     05F9                     i1l2172:
  6922     05F9  0A4E               	incf	___fldiv@aexp,w
  6923     05FA  1D03               	btfss	3,2
  6924     05FB  2DFD               	goto	u252_21
  6925     05FC  2DFE               	goto	u252_20
  6926     05FD                     u252_21:
  6927     05FD  2E06               	goto	i1l2176
  6928     05FE                     u252_20:
  6929     05FE                     i1l2174:
  6930     05FE  3000               	movlw	0
  6931     05FF  00B8               	movwf	___fldiv@a+3
  6932     0600  3000               	movlw	0
  6933     0601  00B7               	movwf	___fldiv@a+2
  6934     0602  3000               	movlw	0
  6935     0603  00B6               	movwf	___fldiv@a+1
  6936     0604  3000               	movlw	0
  6937     0605  00B5               	movwf	___fldiv@a
  6938     0606                     i1l2176:
  6939     0606  17B7               	bsf	___fldiv@a+2,7
  6940     0607                     i1l2178:
  6941     0607  01B8               	clrf	___fldiv@a+3
  6942     0608  2E11               	goto	i1l723
  6943     0609                     i1l2180:
  6944     0609  3000               	movlw	0
  6945     060A  00B8               	movwf	___fldiv@a+3
  6946     060B  3000               	movlw	0
  6947     060C  00B7               	movwf	___fldiv@a+2
  6948     060D  3000               	movlw	0
  6949     060E  00B6               	movwf	___fldiv@a+1
  6950     060F  3000               	movlw	0
  6951     0610  00B5               	movwf	___fldiv@a
  6952     0611                     i1l723:
  6953     0611  0838               	movf	___fldiv@a+3,w
  6954     0612  0437               	iorwf	___fldiv@a+2,w
  6955     0613  0436               	iorwf	___fldiv@a+1,w
  6956     0614  0435               	iorwf	___fldiv@a,w
  6957     0615  1D03               	skipz
  6958     0616  2E18               	goto	u253_21
  6959     0617  2E19               	goto	u253_20
  6960     0618                     u253_21:
  6961     0618  2E32               	goto	i1l2190
  6962     0619                     u253_20:
  6963     0619                     i1l2182:
  6964     0619  3000               	movlw	0
  6965     061A  00BC               	movwf	___fldiv@b+3
  6966     061B  3000               	movlw	0
  6967     061C  00BB               	movwf	___fldiv@b+2
  6968     061D  3000               	movlw	0
  6969     061E  00BA               	movwf	___fldiv@b+1
  6970     061F  3000               	movlw	0
  6971     0620  00B9               	movwf	___fldiv@b
  6972     0621  3080               	movlw	128
  6973     0622  04BB               	iorwf	___fldiv@b+2,f
  6974     0623  307F               	movlw	127
  6975     0624  04BC               	iorwf	___fldiv@b+3,f
  6976     0625                     i1l2184:
  6977     0625  0846               	movf	___fldiv@sign,w
  6978     0626  00FF               	movwf	btemp+1
  6979     0627  087F               	movf	btemp+1,w
  6980     0628  04BC               	iorwf	___fldiv@b+3,f
  6981     0629                     i1l2186:
  6982     0629  083C               	movf	___fldiv@b+3,w
  6983     062A  00B8               	movwf	?___fldiv+3
  6984     062B  083B               	movf	___fldiv@b+2,w
  6985     062C  00B7               	movwf	?___fldiv+2
  6986     062D  083A               	movf	___fldiv@b+1,w
  6987     062E  00B6               	movwf	?___fldiv+1
  6988     062F  0839               	movf	___fldiv@b,w
  6989     0630  00B5               	movwf	?___fldiv
  6990     0631  2F89               	goto	i1l725
  6991     0632                     i1l2190:
  6992     0632  084D               	movf	___fldiv@bexp,w
  6993     0633  1D03               	btfss	3,2
  6994     0634  2E36               	goto	u254_21
  6995     0635  2E37               	goto	u254_20
  6996     0636                     u254_21:
  6997     0636  2E40               	goto	i1l2196
  6998     0637                     u254_20:
  6999     0637                     i1l2192:
  7000     0637  3000               	movlw	0
  7001     0638  00B8               	movwf	?___fldiv+3
  7002     0639  3000               	movlw	0
  7003     063A  00B7               	movwf	?___fldiv+2
  7004     063B  3000               	movlw	0
  7005     063C  00B6               	movwf	?___fldiv+1
  7006     063D  3000               	movlw	0
  7007     063E  00B5               	movwf	?___fldiv
  7008     063F  2F89               	goto	i1l725
  7009     0640                     i1l2196:
  7010     0640  084D               	movf	___fldiv@bexp,w
  7011     0641  00BD               	movwf	??___fldiv
  7012     0642  01BE               	clrf	??___fldiv+1
  7013     0643  083E               	movf	??___fldiv+1,w
  7014     0644  00C0               	movwf	??___fldiv+3
  7015     0645  084E               	movf	___fldiv@aexp,w
  7016     0646  023D               	subwf	??___fldiv,w
  7017     0647  00BF               	movwf	??___fldiv+2
  7018     0648  1C03               	skipc
  7019     0649  03C0               	decf	??___fldiv+3,f
  7020     064A  083F               	movf	??___fldiv+2,w
  7021     064B  3E7F               	addlw	127
  7022     064C  00C7               	movwf	___fldiv@new_exp
  7023     064D  0840               	movf	??___fldiv+3,w
  7024     064E  1803               	skipnc
  7025     064F  3E01               	addlw	1
  7026     0650  3E00               	addlw	0
  7027     0651  00C8               	movwf	___fldiv@new_exp+1
  7028     0652                     i1l2198:
  7029     0652  083C               	movf	___fldiv@b+3,w
  7030     0653  00C5               	movwf	___fldiv@rem+3
  7031     0654  083B               	movf	___fldiv@b+2,w
  7032     0655  00C4               	movwf	___fldiv@rem+2
  7033     0656  083A               	movf	___fldiv@b+1,w
  7034     0657  00C3               	movwf	___fldiv@rem+1
  7035     0658  0839               	movf	___fldiv@b,w
  7036     0659  00C2               	movwf	___fldiv@rem
  7037     065A                     i1l2200:
  7038     065A  3000               	movlw	0
  7039     065B  00BC               	movwf	___fldiv@b+3
  7040     065C  3000               	movlw	0
  7041     065D  00BB               	movwf	___fldiv@b+2
  7042     065E  3000               	movlw	0
  7043     065F  00BA               	movwf	___fldiv@b+1
  7044     0660  3000               	movlw	0
  7045     0661  00B9               	movwf	___fldiv@b
  7046     0662                     i1l2202:
  7047     0662  3000               	movlw	0
  7048     0663  00CC               	movwf	___fldiv@grs+3
  7049     0664  3000               	movlw	0
  7050     0665  00CB               	movwf	___fldiv@grs+2
  7051     0666  3000               	movlw	0
  7052     0667  00CA               	movwf	___fldiv@grs+1
  7053     0668  3000               	movlw	0
  7054     0669  00C9               	movwf	___fldiv@grs
  7055     066A                     i1l2204:
  7056     066A  01CE               	clrf	___fldiv@aexp
  7057     066B  2EB6               	goto	i1l2224
  7058     066C                     i1l2206:
  7059     066C  084E               	movf	___fldiv@aexp,w
  7060     066D  1903               	btfsc	3,2
  7061     066E  2E70               	goto	u255_21
  7062     066F  2E71               	goto	u255_20
  7063     0670                     u255_21:
  7064     0670  2E91               	goto	i1l2216
  7065     0671                     u255_20:
  7066     0671                     i1l2208:
  7067     0671  3001               	movlw	1
  7068     0672  00BD               	movwf	??___fldiv
  7069     0673                     u256_25:
  7070     0673  1003               	clrc
  7071     0674  0DC2               	rlf	___fldiv@rem,f
  7072     0675  0DC3               	rlf	___fldiv@rem+1,f
  7073     0676  0DC4               	rlf	___fldiv@rem+2,f
  7074     0677  0DC5               	rlf	___fldiv@rem+3,f
  7075     0678  0BBD               	decfsz	??___fldiv,f
  7076     0679  2E73               	goto	u256_25
  7077     067A  3001               	movlw	1
  7078     067B  00BD               	movwf	??___fldiv
  7079     067C                     u257_25:
  7080     067C  1003               	clrc
  7081     067D  0DB9               	rlf	___fldiv@b,f
  7082     067E  0DBA               	rlf	___fldiv@b+1,f
  7083     067F  0DBB               	rlf	___fldiv@b+2,f
  7084     0680  0DBC               	rlf	___fldiv@b+3,f
  7085     0681  0BBD               	decfsz	??___fldiv,f
  7086     0682  2E7C               	goto	u257_25
  7087     0683                     i1l2210:
  7088     0683  1FCC               	btfss	___fldiv@grs+3,7
  7089     0684  2E86               	goto	u258_21
  7090     0685  2E87               	goto	u258_20
  7091     0686                     u258_21:
  7092     0686  2E88               	goto	i1l2214
  7093     0687                     u258_20:
  7094     0687                     i1l2212:
  7095     0687  1439               	bsf	___fldiv@b,0
  7096     0688                     i1l2214:
  7097     0688  3001               	movlw	1
  7098     0689  00BD               	movwf	??___fldiv
  7099     068A                     u259_25:
  7100     068A  1003               	clrc
  7101     068B  0DC9               	rlf	___fldiv@grs,f
  7102     068C  0DCA               	rlf	___fldiv@grs+1,f
  7103     068D  0DCB               	rlf	___fldiv@grs+2,f
  7104     068E  0DCC               	rlf	___fldiv@grs+3,f
  7105     068F  0BBD               	decfsz	??___fldiv,f
  7106     0690  2E8A               	goto	u259_25
  7107     0691                     i1l2216:
  7108     0691  0838               	movf	___fldiv@a+3,w
  7109     0692  0245               	subwf	___fldiv@rem+3,w
  7110     0693  1D03               	skipz
  7111     0694  2E9F               	goto	u260_25
  7112     0695  0837               	movf	___fldiv@a+2,w
  7113     0696  0244               	subwf	___fldiv@rem+2,w
  7114     0697  1D03               	skipz
  7115     0698  2E9F               	goto	u260_25
  7116     0699  0836               	movf	___fldiv@a+1,w
  7117     069A  0243               	subwf	___fldiv@rem+1,w
  7118     069B  1D03               	skipz
  7119     069C  2E9F               	goto	u260_25
  7120     069D  0835               	movf	___fldiv@a,w
  7121     069E  0242               	subwf	___fldiv@rem,w
  7122     069F                     u260_25:
  7123     069F  1C03               	skipc
  7124     06A0  2EA2               	goto	u260_21
  7125     06A1  2EA3               	goto	u260_20
  7126     06A2                     u260_21:
  7127     06A2  2EB2               	goto	i1l2222
  7128     06A3                     u260_20:
  7129     06A3                     i1l2218:
  7130     06A3  174C               	bsf	___fldiv@grs+3,6
  7131     06A4                     i1l2220:
  7132     06A4  0835               	movf	___fldiv@a,w
  7133     06A5  02C2               	subwf	___fldiv@rem,f
  7134     06A6  0836               	movf	___fldiv@a+1,w
  7135     06A7  1C03               	skipc
  7136     06A8  0F36               	incfsz	___fldiv@a+1,w
  7137     06A9  02C3               	subwf	___fldiv@rem+1,f
  7138     06AA  0837               	movf	___fldiv@a+2,w
  7139     06AB  1C03               	skipc
  7140     06AC  0F37               	incfsz	___fldiv@a+2,w
  7141     06AD  02C4               	subwf	___fldiv@rem+2,f
  7142     06AE  0838               	movf	___fldiv@a+3,w
  7143     06AF  1C03               	skipc
  7144     06B0  0F38               	incfsz	___fldiv@a+3,w
  7145     06B1  02C5               	subwf	___fldiv@rem+3,f
  7146     06B2                     i1l2222:
  7147     06B2  3001               	movlw	1
  7148     06B3  00FF               	movwf	btemp+1
  7149     06B4  087F               	movf	btemp+1,w
  7150     06B5  07CE               	addwf	___fldiv@aexp,f
  7151     06B6                     i1l2224:
  7152     06B6  301A               	movlw	26
  7153     06B7  024E               	subwf	___fldiv@aexp,w
  7154     06B8  1C03               	skipc
  7155     06B9  2EBB               	goto	u261_21
  7156     06BA  2EBC               	goto	u261_20
  7157     06BB                     u261_21:
  7158     06BB  2E6C               	goto	i1l2206
  7159     06BC                     u261_20:
  7160     06BC                     i1l2226:
  7161     06BC  0845               	movf	___fldiv@rem+3,w
  7162     06BD  0444               	iorwf	___fldiv@rem+2,w
  7163     06BE  0443               	iorwf	___fldiv@rem+1,w
  7164     06BF  0442               	iorwf	___fldiv@rem,w
  7165     06C0  1903               	skipnz
  7166     06C1  2EC3               	goto	u262_21
  7167     06C2  2EC4               	goto	u262_20
  7168     06C3                     u262_21:
  7169     06C3  2EE3               	goto	i1l2240
  7170     06C4                     u262_20:
  7171     06C4                     i1l2228:
  7172     06C4  1449               	bsf	___fldiv@grs,0
  7173     06C5  2EE3               	goto	i1l2240
  7174     06C6                     i1l2230:
  7175     06C6  3001               	movlw	1
  7176     06C7  00BD               	movwf	??___fldiv
  7177     06C8                     u263_25:
  7178     06C8  1003               	clrc
  7179     06C9  0DB9               	rlf	___fldiv@b,f
  7180     06CA  0DBA               	rlf	___fldiv@b+1,f
  7181     06CB  0DBB               	rlf	___fldiv@b+2,f
  7182     06CC  0DBC               	rlf	___fldiv@b+3,f
  7183     06CD  0BBD               	decfsz	??___fldiv,f
  7184     06CE  2EC8               	goto	u263_25
  7185     06CF                     i1l2232:
  7186     06CF  1FCC               	btfss	___fldiv@grs+3,7
  7187     06D0  2ED2               	goto	u264_21
  7188     06D1  2ED3               	goto	u264_20
  7189     06D2                     u264_21:
  7190     06D2  2ED4               	goto	i1l2236
  7191     06D3                     u264_20:
  7192     06D3                     i1l2234:
  7193     06D3  1439               	bsf	___fldiv@b,0
  7194     06D4                     i1l2236:
  7195     06D4  3001               	movlw	1
  7196     06D5  00BD               	movwf	??___fldiv
  7197     06D6                     u265_25:
  7198     06D6  1003               	clrc
  7199     06D7  0DC9               	rlf	___fldiv@grs,f
  7200     06D8  0DCA               	rlf	___fldiv@grs+1,f
  7201     06D9  0DCB               	rlf	___fldiv@grs+2,f
  7202     06DA  0DCC               	rlf	___fldiv@grs+3,f
  7203     06DB  0BBD               	decfsz	??___fldiv,f
  7204     06DC  2ED6               	goto	u265_25
  7205     06DD                     i1l2238:
  7206     06DD  30FF               	movlw	255
  7207     06DE  07C7               	addwf	___fldiv@new_exp,f
  7208     06DF  1803               	skipnc
  7209     06E0  0AC8               	incf	___fldiv@new_exp+1,f
  7210     06E1  30FF               	movlw	255
  7211     06E2  07C8               	addwf	___fldiv@new_exp+1,f
  7212     06E3                     i1l2240:
  7213     06E3  1FBB               	btfss	___fldiv@b+2,7
  7214     06E4  2EE6               	goto	u266_21
  7215     06E5  2EE7               	goto	u266_20
  7216     06E6                     u266_21:
  7217     06E6  2EC6               	goto	i1l2230
  7218     06E7                     u266_20:
  7219     06E7                     i1l2242:
  7220     06E7  01CE               	clrf	___fldiv@aexp
  7221     06E8                     i1l2244:
  7222     06E8  1FCC               	btfss	___fldiv@grs+3,7
  7223     06E9  2EEB               	goto	u267_21
  7224     06EA  2EEC               	goto	u267_20
  7225     06EB                     u267_21:
  7226     06EB  2F08               	goto	i1l2252
  7227     06EC                     u267_20:
  7228     06EC                     i1l2246:
  7229     06EC  30FF               	movlw	255
  7230     06ED  0549               	andwf	___fldiv@grs,w
  7231     06EE  00BD               	movwf	??___fldiv
  7232     06EF  30FF               	movlw	255
  7233     06F0  054A               	andwf	___fldiv@grs+1,w
  7234     06F1  00BE               	movwf	??___fldiv+1
  7235     06F2  30FF               	movlw	255
  7236     06F3  054B               	andwf	___fldiv@grs+2,w
  7237     06F4  00BF               	movwf	??___fldiv+2
  7238     06F5  307F               	movlw	127
  7239     06F6  054C               	andwf	___fldiv@grs+3,w
  7240     06F7  00C0               	movwf	??___fldiv+3
  7241     06F8  0840               	movf	??___fldiv+3,w
  7242     06F9  043F               	iorwf	??___fldiv+2,w
  7243     06FA  043E               	iorwf	??___fldiv+1,w
  7244     06FB  043D               	iorwf	??___fldiv,w
  7245     06FC  1903               	skipnz
  7246     06FD  2EFF               	goto	u268_21
  7247     06FE  2F00               	goto	u268_20
  7248     06FF                     u268_21:
  7249     06FF  2F03               	goto	i1l739
  7250     0700                     u268_20:
  7251     0700                     i1l2248:
  7252     0700  01CE               	clrf	___fldiv@aexp
  7253     0701  0ACE               	incf	___fldiv@aexp,f
  7254     0702  2F08               	goto	i1l2252
  7255     0703                     i1l739:
  7256     0703  1C39               	btfss	___fldiv@b,0
  7257     0704  2F06               	goto	u269_21
  7258     0705  2F07               	goto	u269_20
  7259     0706                     u269_21:
  7260     0706  2F08               	goto	i1l2252
  7261     0707                     u269_20:
  7262     0707  2F00               	goto	i1l2248
  7263     0708                     i1l2252:
  7264     0708  084E               	movf	___fldiv@aexp,w
  7265     0709  1903               	btfsc	3,2
  7266     070A  2F0C               	goto	u270_21
  7267     070B  2F0D               	goto	u270_20
  7268     070C                     u270_21:
  7269     070C  2F3E               	goto	i1l2262
  7270     070D                     u270_20:
  7271     070D                     i1l2254:
  7272     070D  3001               	movlw	1
  7273     070E  07B9               	addwf	___fldiv@b,f
  7274     070F  3000               	movlw	0
  7275     0710  1803               	skipnc
  7276     0711  3001               	movlw	1
  7277     0712  07BA               	addwf	___fldiv@b+1,f
  7278     0713  3000               	movlw	0
  7279     0714  1803               	skipnc
  7280     0715  3001               	movlw	1
  7281     0716  07BB               	addwf	___fldiv@b+2,f
  7282     0717  3000               	movlw	0
  7283     0718  1803               	skipnc
  7284     0719  3001               	movlw	1
  7285     071A  07BC               	addwf	___fldiv@b+3,f
  7286     071B                     i1l2256:
  7287     071B  1C3C               	btfss	___fldiv@b+3,0
  7288     071C  2F1E               	goto	u271_21
  7289     071D  2F1F               	goto	u271_20
  7290     071E                     u271_21:
  7291     071E  2F3E               	goto	i1l2262
  7292     071F                     u271_20:
  7293     071F                     i1l2258:
  7294     071F  0839               	movf	___fldiv@b,w
  7295     0720  00BD               	movwf	??___fldiv
  7296     0721  083A               	movf	___fldiv@b+1,w
  7297     0722  00BE               	movwf	??___fldiv+1
  7298     0723  083B               	movf	___fldiv@b+2,w
  7299     0724  00BF               	movwf	??___fldiv+2
  7300     0725  083C               	movf	___fldiv@b+3,w
  7301     0726  00C0               	movwf	??___fldiv+3
  7302     0727  3001               	movlw	1
  7303     0728  00C1               	movwf	??___fldiv+4
  7304     0729                     u272_25:
  7305     0729  0D40               	rlf	??___fldiv+3,w
  7306     072A  0CC0               	rrf	??___fldiv+3,f
  7307     072B  0CBF               	rrf	??___fldiv+2,f
  7308     072C  0CBE               	rrf	??___fldiv+1,f
  7309     072D  0CBD               	rrf	??___fldiv,f
  7310     072E                     u272_20:
  7311     072E  0BC1               	decfsz	??___fldiv+4,f
  7312     072F  2F29               	goto	u272_25
  7313     0730  0840               	movf	??___fldiv+3,w
  7314     0731  00BC               	movwf	___fldiv@b+3
  7315     0732  083F               	movf	??___fldiv+2,w
  7316     0733  00BB               	movwf	___fldiv@b+2
  7317     0734  083E               	movf	??___fldiv+1,w
  7318     0735  00BA               	movwf	___fldiv@b+1
  7319     0736  083D               	movf	??___fldiv,w
  7320     0737  00B9               	movwf	___fldiv@b
  7321     0738                     i1l2260:
  7322     0738  3001               	movlw	1
  7323     0739  07C7               	addwf	___fldiv@new_exp,f
  7324     073A  1803               	skipnc
  7325     073B  0AC8               	incf	___fldiv@new_exp+1,f
  7326     073C  3000               	movlw	0
  7327     073D  07C8               	addwf	___fldiv@new_exp+1,f
  7328     073E                     i1l2262:
  7329     073E  0848               	movf	___fldiv@new_exp+1,w
  7330     073F  3A80               	xorlw	128
  7331     0740  00FF               	movwf	btemp+1
  7332     0741  3080               	movlw	128
  7333     0742  027F               	subwf	btemp+1,w
  7334     0743  1D03               	skipz
  7335     0744  2F47               	goto	u273_25
  7336     0745  30FF               	movlw	255
  7337     0746  0247               	subwf	___fldiv@new_exp,w
  7338     0747                     u273_25:
  7339     0747  1C03               	skipc
  7340     0748  2F4A               	goto	u273_21
  7341     0749  2F4B               	goto	u273_20
  7342     074A                     u273_21:
  7343     074A  2F59               	goto	i1l2266
  7344     074B                     u273_20:
  7345     074B                     i1l2264:
  7346     074B  30FF               	movlw	255
  7347     074C  1283               	bcf	3,5	;RP0=0, select bank0
  7348     074D  1303               	bcf	3,6	;RP1=0, select bank0
  7349     074E  00C7               	movwf	___fldiv@new_exp
  7350     074F  3000               	movlw	0
  7351     0750  00C8               	movwf	___fldiv@new_exp+1
  7352     0751  3000               	movlw	0
  7353     0752  00BC               	movwf	___fldiv@b+3
  7354     0753  3000               	movlw	0
  7355     0754  00BB               	movwf	___fldiv@b+2
  7356     0755  3000               	movlw	0
  7357     0756  00BA               	movwf	___fldiv@b+1
  7358     0757  3000               	movlw	0
  7359     0758  00B9               	movwf	___fldiv@b
  7360     0759                     i1l2266:
  7361     0759  1283               	bcf	3,5	;RP0=0, select bank0
  7362     075A  1303               	bcf	3,6	;RP1=0, select bank0
  7363     075B  0848               	movf	___fldiv@new_exp+1,w
  7364     075C  3A80               	xorlw	128
  7365     075D  00FF               	movwf	btemp+1
  7366     075E  3080               	movlw	128
  7367     075F  027F               	subwf	btemp+1,w
  7368     0760  1D03               	skipz
  7369     0761  2F64               	goto	u274_25
  7370     0762  3001               	movlw	1
  7371     0763  0247               	subwf	___fldiv@new_exp,w
  7372     0764                     u274_25:
  7373     0764  1803               	skipnc
  7374     0765  2F67               	goto	u274_21
  7375     0766  2F68               	goto	u274_20
  7376     0767                     u274_21:
  7377     0767  2F75               	goto	i1l745
  7378     0768                     u274_20:
  7379     0768                     i1l2268:
  7380     0768  1283               	bcf	3,5	;RP0=0, select bank0
  7381     0769  1303               	bcf	3,6	;RP1=0, select bank0
  7382     076A  01C7               	clrf	___fldiv@new_exp
  7383     076B  01C8               	clrf	___fldiv@new_exp+1
  7384     076C                     i1l2270:
  7385     076C  3000               	movlw	0
  7386     076D  00BC               	movwf	___fldiv@b+3
  7387     076E  3000               	movlw	0
  7388     076F  00BB               	movwf	___fldiv@b+2
  7389     0770  3000               	movlw	0
  7390     0771  00BA               	movwf	___fldiv@b+1
  7391     0772  3000               	movlw	0
  7392     0773  00B9               	movwf	___fldiv@b
  7393     0774                     i1l2272:
  7394     0774  01C6               	clrf	___fldiv@sign
  7395     0775                     i1l745:
  7396     0775  1283               	bcf	3,5	;RP0=0, select bank0
  7397     0776  1303               	bcf	3,6	;RP1=0, select bank0
  7398     0777  0847               	movf	___fldiv@new_exp,w
  7399     0778  00CD               	movwf	___fldiv@bexp
  7400     0779                     i1l2274:
  7401     0779  1C4D               	btfss	___fldiv@bexp,0
  7402     077A  2F7C               	goto	u275_21
  7403     077B  2F7D               	goto	u275_20
  7404     077C                     u275_21:
  7405     077C  2F7F               	goto	i1l2278
  7406     077D                     u275_20:
  7407     077D                     i1l2276:
  7408     077D  17BB               	bsf	___fldiv@b+2,7
  7409     077E  2F83               	goto	i1l2280
  7410     077F                     i1l2278:
  7411     077F  307F               	movlw	127
  7412     0780  00FF               	movwf	btemp+1
  7413     0781  087F               	movf	btemp+1,w
  7414     0782  05BB               	andwf	___fldiv@b+2,f
  7415     0783                     i1l2280:
  7416     0783  084D               	movf	___fldiv@bexp,w
  7417     0784  00BD               	movwf	??___fldiv
  7418     0785  1003               	clrc
  7419     0786  0C3D               	rrf	??___fldiv,w
  7420     0787  00BC               	movwf	___fldiv@b+3
  7421     0788  2E25               	goto	i1l2184
  7422     0789                     i1l725:
  7423     0789  0008               	return
  7424     078A                     __end_of___fldiv:
  7425                           
  7426                           	psect	text43
  7427     0E4F                     __ptext43:	
  7428 ;; *************** function ___xxtofl *****************
  7429 ;; Defined at:
  7430 ;;		line 10 in file "C:\Program Files\Microchip\xc8\v2.45\pic\sources\c99\common\xxtofl.c"
  7431 ;; Parameters:    Size  Location     Type
  7432 ;;  sign            1    wreg     unsigned char 
  7433 ;;  val             4    0[BANK0 ] long 
  7434 ;; Auto vars:     Size  Location     Type
  7435 ;;  sign            1    8[BANK0 ] unsigned char 
  7436 ;;  arg             4   10[BANK0 ] unsigned long 
  7437 ;;  exp             1    9[BANK0 ] unsigned char 
  7438 ;; Return value:  Size  Location     Type
  7439 ;;                  4    0[BANK0 ] unsigned char 
  7440 ;; Registers used:
  7441 ;;		wreg, status,2, status,0, btemp+1
  7442 ;; Tracked objects:
  7443 ;;		On entry : 0/0
  7444 ;;		On exit  : 0/0
  7445 ;;		Unchanged: 0/0
  7446 ;; Data sizes:     COMMON   BANK0   BANK1   BANK2
  7447 ;;      Params:         0       4       0       0
  7448 ;;      Locals:         0       6       0       0
  7449 ;;      Temps:          0       4       0       0
  7450 ;;      Totals:         0      14       0       0
  7451 ;;Total ram usage:       14 bytes
  7452 ;; Hardware stack levels used: 1
  7453 ;; This function calls:
  7454 ;;		Nothing
  7455 ;; This function is called by:
  7456 ;;		_get_conversion_result
  7457 ;;		_send_pulse
  7458 ;;		_sleep_us_thread1
  7459 ;; This function uses a non-reentrant model
  7460 ;;
  7461                           
  7462     0E4F                     ___xxtofl:	
  7463                           ;psect for function ___xxtofl
  7464                           
  7465                           
  7466                           ;incstack = 0
  7467                           ; Regs used in ___xxtofl: [wreg+status,2+status,0+btemp+1]
  7468                           ;___xxtofl@sign stored from wreg
  7469     0E4F  1283               	bcf	3,5	;RP0=0, select bank0
  7470     0E50  1303               	bcf	3,6	;RP1=0, select bank0
  7471     0E51  00A8               	movwf	___xxtofl@sign
  7472     0E52                     i1l2528:
  7473     0E52  0828               	movf	___xxtofl@sign,w
  7474     0E53  1903               	btfsc	3,2
  7475     0E54  2E56               	goto	u334_21
  7476     0E55  2E57               	goto	u334_20
  7477     0E56                     u334_21:
  7478     0E56  2E6B               	goto	i1l2534
  7479     0E57                     u334_20:
  7480     0E57                     i1l2530:
  7481     0E57  1FA3               	btfss	___xxtofl@val+3,7
  7482     0E58  2E5A               	goto	u335_21
  7483     0E59  2E5B               	goto	u335_20
  7484     0E5A                     u335_21:
  7485     0E5A  2E6B               	goto	i1l2534
  7486     0E5B                     u335_20:
  7487     0E5B                     i1l2532:
  7488     0E5B  0920               	comf	___xxtofl@val,w
  7489     0E5C  00AA               	movwf	___xxtofl@arg
  7490     0E5D  0921               	comf	___xxtofl@val+1,w
  7491     0E5E  00AB               	movwf	___xxtofl@arg+1
  7492     0E5F  0922               	comf	___xxtofl@val+2,w
  7493     0E60  00AC               	movwf	___xxtofl@arg+2
  7494     0E61  0923               	comf	___xxtofl@val+3,w
  7495     0E62  00AD               	movwf	___xxtofl@arg+3
  7496     0E63  0AAA               	incf	___xxtofl@arg,f
  7497     0E64  1903               	skipnz
  7498     0E65  0AAB               	incf	___xxtofl@arg+1,f
  7499     0E66  1903               	skipnz
  7500     0E67  0AAC               	incf	___xxtofl@arg+2,f
  7501     0E68  1903               	skipnz
  7502     0E69  0AAD               	incf	___xxtofl@arg+3,f
  7503     0E6A  2E73               	goto	i1l807
  7504     0E6B                     i1l2534:
  7505     0E6B  0823               	movf	___xxtofl@val+3,w
  7506     0E6C  00AD               	movwf	___xxtofl@arg+3
  7507     0E6D  0822               	movf	___xxtofl@val+2,w
  7508     0E6E  00AC               	movwf	___xxtofl@arg+2
  7509     0E6F  0821               	movf	___xxtofl@val+1,w
  7510     0E70  00AB               	movwf	___xxtofl@arg+1
  7511     0E71  0820               	movf	___xxtofl@val,w
  7512     0E72  00AA               	movwf	___xxtofl@arg
  7513     0E73                     i1l807:
  7514     0E73  0823               	movf	___xxtofl@val+3,w
  7515     0E74  0422               	iorwf	___xxtofl@val+2,w
  7516     0E75  0421               	iorwf	___xxtofl@val+1,w
  7517     0E76  0420               	iorwf	___xxtofl@val,w
  7518     0E77  1D03               	skipz
  7519     0E78  2E7A               	goto	u336_21
  7520     0E79  2E7B               	goto	u336_20
  7521     0E7A                     u336_21:
  7522     0E7A  2E84               	goto	i1l2540
  7523     0E7B                     u336_20:
  7524     0E7B                     i1l2536:
  7525     0E7B  3000               	movlw	0
  7526     0E7C  00A3               	movwf	?___xxtofl+3
  7527     0E7D  3000               	movlw	0
  7528     0E7E  00A2               	movwf	?___xxtofl+2
  7529     0E7F  3000               	movlw	0
  7530     0E80  00A1               	movwf	?___xxtofl+1
  7531     0E81  3000               	movlw	0
  7532     0E82  00A0               	movwf	?___xxtofl
  7533     0E83  2F08               	goto	i1l809
  7534     0E84                     i1l2540:
  7535     0E84  3096               	movlw	150
  7536     0E85  00A9               	movwf	___xxtofl@exp
  7537     0E86  2E94               	goto	i1l2546
  7538     0E87                     i1l2542:
  7539     0E87  3001               	movlw	1
  7540     0E88  00FF               	movwf	btemp+1
  7541     0E89  087F               	movf	btemp+1,w
  7542     0E8A  07A9               	addwf	___xxtofl@exp,f
  7543     0E8B                     i1l2544:
  7544     0E8B  3001               	movlw	1
  7545     0E8C                     u337_25:
  7546     0E8C  1003               	clrc
  7547     0E8D  0CAD               	rrf	___xxtofl@arg+3,f
  7548     0E8E  0CAC               	rrf	___xxtofl@arg+2,f
  7549     0E8F  0CAB               	rrf	___xxtofl@arg+1,f
  7550     0E90  0CAA               	rrf	___xxtofl@arg,f
  7551     0E91  3EFF               	addlw	-1
  7552     0E92  1D03               	skipz
  7553     0E93  2E8C               	goto	u337_25
  7554     0E94                     i1l2546:
  7555     0E94  30FE               	movlw	254
  7556     0E95  052D               	andwf	___xxtofl@arg+3,w
  7557     0E96  1D03               	btfss	3,2
  7558     0E97  2E99               	goto	u338_21
  7559     0E98  2E9A               	goto	u338_20
  7560     0E99                     u338_21:
  7561     0E99  2E87               	goto	i1l2542
  7562     0E9A                     u338_20:
  7563     0E9A  2EB6               	goto	i1l2554
  7564     0E9B                     i1l2548:
  7565     0E9B  3001               	movlw	1
  7566     0E9C  00FF               	movwf	btemp+1
  7567     0E9D  087F               	movf	btemp+1,w
  7568     0E9E  07A9               	addwf	___xxtofl@exp,f
  7569     0E9F                     i1l2550:
  7570     0E9F  3001               	movlw	1
  7571     0EA0  07AA               	addwf	___xxtofl@arg,f
  7572     0EA1  3000               	movlw	0
  7573     0EA2  1803               	skipnc
  7574     0EA3  3001               	movlw	1
  7575     0EA4  07AB               	addwf	___xxtofl@arg+1,f
  7576     0EA5  3000               	movlw	0
  7577     0EA6  1803               	skipnc
  7578     0EA7  3001               	movlw	1
  7579     0EA8  07AC               	addwf	___xxtofl@arg+2,f
  7580     0EA9  3000               	movlw	0
  7581     0EAA  1803               	skipnc
  7582     0EAB  3001               	movlw	1
  7583     0EAC  07AD               	addwf	___xxtofl@arg+3,f
  7584     0EAD                     i1l2552:
  7585     0EAD  3001               	movlw	1
  7586     0EAE                     u339_25:
  7587     0EAE  1003               	clrc
  7588     0EAF  0CAD               	rrf	___xxtofl@arg+3,f
  7589     0EB0  0CAC               	rrf	___xxtofl@arg+2,f
  7590     0EB1  0CAB               	rrf	___xxtofl@arg+1,f
  7591     0EB2  0CAA               	rrf	___xxtofl@arg,f
  7592     0EB3  3EFF               	addlw	-1
  7593     0EB4  1D03               	skipz
  7594     0EB5  2EAE               	goto	u339_25
  7595     0EB6                     i1l2554:
  7596     0EB6  30FF               	movlw	255
  7597     0EB7  052D               	andwf	___xxtofl@arg+3,w
  7598     0EB8  1D03               	btfss	3,2
  7599     0EB9  2EBB               	goto	u340_21
  7600     0EBA  2EBC               	goto	u340_20
  7601     0EBB                     u340_21:
  7602     0EBB  2E9B               	goto	i1l2548
  7603     0EBC                     u340_20:
  7604     0EBC  2EC8               	goto	i1l2558
  7605     0EBD                     i1l2556:
  7606     0EBD  3001               	movlw	1
  7607     0EBE  02A9               	subwf	___xxtofl@exp,f
  7608     0EBF  3001               	movlw	1
  7609     0EC0  00A4               	movwf	??___xxtofl
  7610     0EC1                     u341_25:
  7611     0EC1  1003               	clrc
  7612     0EC2  0DAA               	rlf	___xxtofl@arg,f
  7613     0EC3  0DAB               	rlf	___xxtofl@arg+1,f
  7614     0EC4  0DAC               	rlf	___xxtofl@arg+2,f
  7615     0EC5  0DAD               	rlf	___xxtofl@arg+3,f
  7616     0EC6  0BA4               	decfsz	??___xxtofl,f
  7617     0EC7  2EC1               	goto	u341_25
  7618     0EC8                     i1l2558:
  7619     0EC8  1BAC               	btfsc	___xxtofl@arg+2,7
  7620     0EC9  2ECB               	goto	u342_21
  7621     0ECA  2ECC               	goto	u342_20
  7622     0ECB                     u342_21:
  7623     0ECB  2ED2               	goto	i1l820
  7624     0ECC                     u342_20:
  7625     0ECC                     i1l2560:
  7626     0ECC  3002               	movlw	2
  7627     0ECD  0229               	subwf	___xxtofl@exp,w
  7628     0ECE  1803               	skipnc
  7629     0ECF  2ED1               	goto	u343_21
  7630     0ED0  2ED2               	goto	u343_20
  7631     0ED1                     u343_21:
  7632     0ED1  2EBD               	goto	i1l2556
  7633     0ED2                     u343_20:
  7634     0ED2                     i1l820:
  7635     0ED2  1829               	btfsc	___xxtofl@exp,0
  7636     0ED3  2ED5               	goto	u344_21
  7637     0ED4  2ED6               	goto	u344_20
  7638     0ED5                     u344_21:
  7639     0ED5  2EDE               	goto	i1l821
  7640     0ED6                     u344_20:
  7641     0ED6                     i1l2562:
  7642     0ED6  30FF               	movlw	255
  7643     0ED7  05AA               	andwf	___xxtofl@arg,f
  7644     0ED8  30FF               	movlw	255
  7645     0ED9  05AB               	andwf	___xxtofl@arg+1,f
  7646     0EDA  307F               	movlw	127
  7647     0EDB  05AC               	andwf	___xxtofl@arg+2,f
  7648     0EDC  30FF               	movlw	255
  7649     0EDD  05AD               	andwf	___xxtofl@arg+3,f
  7650     0EDE                     i1l821:
  7651     0EDE  1003               	clrc
  7652     0EDF  0CA9               	rrf	___xxtofl@exp,f
  7653     0EE0                     i1l2564:
  7654     0EE0  0829               	movf	___xxtofl@exp,w
  7655     0EE1  00A4               	movwf	??___xxtofl
  7656     0EE2  01A5               	clrf	??___xxtofl+1
  7657     0EE3  01A6               	clrf	??___xxtofl+2
  7658     0EE4  01A7               	clrf	??___xxtofl+3
  7659     0EE5  3018               	movlw	24
  7660     0EE6                     u345_25:
  7661     0EE6  1003               	clrc
  7662     0EE7  0DA4               	rlf	??___xxtofl,f
  7663     0EE8  0DA5               	rlf	??___xxtofl+1,f
  7664     0EE9  0DA6               	rlf	??___xxtofl+2,f
  7665     0EEA  0DA7               	rlf	??___xxtofl+3,f
  7666     0EEB                     u345_20:
  7667     0EEB  3EFF               	addlw	-1
  7668     0EEC  1D03               	skipz
  7669     0EED  2EE6               	goto	u345_25
  7670     0EEE  0824               	movf	??___xxtofl,w
  7671     0EEF  04AA               	iorwf	___xxtofl@arg,f
  7672     0EF0  0825               	movf	??___xxtofl+1,w
  7673     0EF1  04AB               	iorwf	___xxtofl@arg+1,f
  7674     0EF2  0826               	movf	??___xxtofl+2,w
  7675     0EF3  04AC               	iorwf	___xxtofl@arg+2,f
  7676     0EF4  0827               	movf	??___xxtofl+3,w
  7677     0EF5  04AD               	iorwf	___xxtofl@arg+3,f
  7678     0EF6                     i1l2566:
  7679     0EF6  0828               	movf	___xxtofl@sign,w
  7680     0EF7  1903               	btfsc	3,2
  7681     0EF8  2EFA               	goto	u346_21
  7682     0EF9  2EFB               	goto	u346_20
  7683     0EFA                     u346_21:
  7684     0EFA  2F00               	goto	i1l2572
  7685     0EFB                     u346_20:
  7686     0EFB                     i1l2568:
  7687     0EFB  1FA3               	btfss	___xxtofl@val+3,7
  7688     0EFC  2EFE               	goto	u347_21
  7689     0EFD  2EFF               	goto	u347_20
  7690     0EFE                     u347_21:
  7691     0EFE  2F00               	goto	i1l2572
  7692     0EFF                     u347_20:
  7693     0EFF                     i1l2570:
  7694     0EFF  17AD               	bsf	___xxtofl@arg+3,7
  7695     0F00                     i1l2572:
  7696     0F00  082D               	movf	___xxtofl@arg+3,w
  7697     0F01  00A3               	movwf	?___xxtofl+3
  7698     0F02  082C               	movf	___xxtofl@arg+2,w
  7699     0F03  00A2               	movwf	?___xxtofl+2
  7700     0F04  082B               	movf	___xxtofl@arg+1,w
  7701     0F05  00A1               	movwf	?___xxtofl+1
  7702     0F06  082A               	movf	___xxtofl@arg,w
  7703     0F07  00A0               	movwf	?___xxtofl
  7704     0F08                     i1l809:
  7705     0F08  0008               	return
  7706     0F09                     __end_of___xxtofl:
  7707     007E                     btemp	set	126	;btemp
  7708     007E                     wtemp0	set	126
  7709                           
  7710                           	psect	config
  7711                           
  7712                           ;Config register CONFIG @ 0x2007
  7713                           ;	Oscillator Selection bits
  7714                           ;	FOSC = INTRCIO, INTOSCIO oscillator: I/O function on RA4/OSC2/CLKOUT pin, I/O function
      +                           on RA5/OSC1/CLKIN
  7715                           ;	Watchdog Timer Enable bit
  7716                           ;	WDTE = 0x1, unprogrammed default
  7717                           ;	Power-up Timer Enable bit
  7718                           ;	PWRTE = 0x1, unprogrammed default
  7719                           ;	MCLR Pin Function Select bit
  7720                           ;	MCLRE = 0x1, unprogrammed default
  7721                           ;	Code Protection bit
  7722                           ;	CP = 0x1, unprogrammed default
  7723                           ;	Data Code Protection bit
  7724                           ;	CPD = 0x1, unprogrammed default
  7725                           ;	Brown-out Reset Selection bits
  7726                           ;	BOREN = 0x3, unprogrammed default
  7727                           ;	Internal External Switchover bit
  7728                           ;	IESO = 0x1, unprogrammed default
  7729                           ;	Fail-Safe Clock Monitor Enabled bit
  7730                           ;	FCMEN = 0x1, unprogrammed default
  7731     2007                     	org	8199
  7732     2007  3FFC               	dw	16380

Data Sizes:
    Strings     0
    Constant    0
    Data        4
    BSS         19
    Persistent  0
    Stack       0

Auto Spaces:
    Space          Size  Autos    Used
    COMMON           14     14      14
    BANK0            80     79      80
    BANK1            80     37      59
    BANK2            80      0       0

Pointer List with Targets:

    blink@leds_info$GPIO_port	PTR volatile unsigned char  size(2) Largest target is 1
		 -> PORTA(SFR0[1]), PORTB(SFR0[1]), PORTC(SFR0[1]), 

    blink@leds_info$TRIS_port	PTR volatile unsigned char  size(2) Largest target is 1
		 -> TRISA(SFR1[1]), TRISB(SFR1[1]), TRISC(SFR1[1]), 

    brkp	PTR unsigned char  size(2) Largest target is 0
		 -> __heap_hi(UNKNOWN), NULL(NULL[0]), 

    free@c$.$.$next	PTR struct chunk size(1) Largest target is 0

    free@c$.$next	PTR struct chunk size(1) Largest target is 0

    __freelist	PTR struct chunk size(1) Largest target is 0
		 -> NULL(NULL[0]), 

    __freelist$.$next	PTR struct chunk size(1) Largest target is 0

    ?_gather_LED_info$GPIO_port	PTR volatile unsigned char  size(2) Largest target is 1
		 -> PORTA(SFR0[1]), PORTB(SFR0[1]), PORTC(SFR0[1]), 

    ?_gather_LED_info$TRIS_port	PTR volatile unsigned char  size(2) Largest target is 1
		 -> TRISA(SFR1[1]), TRISB(SFR1[1]), TRISC(SFR1[1]), 

    gather_LED_info@LED1$GPIO_port	PTR volatile unsigned char  size(2) Largest target is 1
		 -> PORTA(SFR0[1]), PORTB(SFR0[1]), PORTC(SFR0[1]), 

    gather_LED_info@LED1$TRIS_port	PTR volatile unsigned char  size(2) Largest target is 1
		 -> TRISA(SFR1[1]), TRISB(SFR1[1]), TRISC(SFR1[1]), 

    gather_LED_info@LED2$GPIO_port	PTR volatile unsigned char  size(2) Largest target is 1
		 -> PORTA(SFR0[1]), PORTB(SFR0[1]), PORTC(SFR0[1]), 

    gather_LED_info@LED2$TRIS_port	PTR volatile unsigned char  size(2) Largest target is 1
		 -> TRISA(SFR1[1]), TRISB(SFR1[1]), TRISC(SFR1[1]), 

    gather_LED_info@LED3$GPIO_port	PTR volatile unsigned char  size(2) Largest target is 1
		 -> PORTA(SFR0[1]), PORTB(SFR0[1]), PORTC(SFR0[1]), 

    gather_LED_info@LED3$TRIS_port	PTR volatile unsigned char  size(2) Largest target is 1
		 -> TRISA(SFR1[1]), TRISB(SFR1[1]), TRISC(SFR1[1]), 

    gather_LED_info@LED4$GPIO_port	PTR volatile unsigned char  size(2) Largest target is 1
		 -> PORTA(SFR0[1]), PORTB(SFR0[1]), PORTC(SFR0[1]), 

    gather_LED_info@LED4$TRIS_port	PTR volatile unsigned char  size(2) Largest target is 1
		 -> TRISA(SFR1[1]), TRISB(SFR1[1]), TRISC(SFR1[1]), 

    gather_LED_info@LED5$GPIO_port	PTR volatile unsigned char  size(2) Largest target is 1
		 -> PORTA(SFR0[1]), PORTB(SFR0[1]), PORTC(SFR0[1]), 

    gather_LED_info@LED5$TRIS_port	PTR volatile unsigned char  size(2) Largest target is 1
		 -> TRISA(SFR1[1]), TRISB(SFR1[1]), TRISC(SFR1[1]), 

    gather_LED_info@leds_info$GPIO_port	PTR volatile unsigned char  size(2) Largest target is 1
		 -> PORTA(SFR0[1]), PORTB(SFR0[1]), PORTC(SFR0[1]), 

    gather_LED_info@leds_info$TRIS_port	PTR volatile unsigned char  size(2) Largest target is 1
		 -> TRISA(SFR1[1]), TRISB(SFR1[1]), TRISC(SFR1[1]), 

    __heap_hi$GPIO_port	PTR volatile unsigned char  size(2) Largest target is 1
		 -> PORTA(SFR0[1]), PORTB(SFR0[1]), PORTC(SFR0[1]), 

    __heap_hi$TRIS_port	PTR volatile unsigned char  size(2) Largest target is 1
		 -> TRISA(SFR1[1]), TRISB(SFR1[1]), TRISC(SFR1[1]), 

    led_off@led$GPIO_port	PTR volatile unsigned char  size(2) Largest target is 1
		 -> PORTA(SFR0[1]), PORTB(SFR0[1]), PORTC(SFR0[1]), 

    led_off@led$TRIS_port	PTR volatile unsigned char  size(2) Largest target is 1
		 -> TRISA(SFR1[1]), TRISB(SFR1[1]), TRISC(SFR1[1]), 

    led_on@led$GPIO_port	PTR volatile unsigned char  size(2) Largest target is 1
		 -> PORTA(SFR0[1]), PORTB(SFR0[1]), PORTC(SFR0[1]), 

    led_on@led$TRIS_port	PTR volatile unsigned char  size(2) Largest target is 1
		 -> TRISA(SFR1[1]), TRISB(SFR1[1]), TRISC(SFR1[1]), 

    malloc@cur	PTR unsigned char  size(2) Largest target is 0
		 -> __heap_hi(UNKNOWN), NULL(NULL[0]), 

    malloc@end	PTR unsigned char  size(2) Largest target is 0
		 -> __heap_hi(UNKNOWN), NULL(NULL[0]), 

    S125$GPIO_port	PTR volatile unsigned char  size(2) Largest target is 1
		 -> PORTA(SFR0[1]), PORTB(SFR0[1]), PORTC(SFR0[1]), 

    S125$TRIS_port	PTR volatile unsigned char  size(2) Largest target is 1
		 -> TRISA(SFR1[1]), TRISB(SFR1[1]), TRISC(SFR1[1]), 

    S1318$next	PTR struct chunk size(1) Largest target is 0

    ?___simple_search_fl$.$next	PTR struct chunk size(1) Largest target is 0

    __simple_search_fl@best$.$next	PTR struct chunk size(1) Largest target is 0

    __simple_search_fl@best_last$.$.$next	PTR struct chunk size(1) Largest target is 0

    __simple_search_fl@best_last$.$next	PTR struct chunk size(1) Largest target is 0

    __simple_search_fl@c$.$next	PTR struct chunk size(1) Largest target is 0

    __simple_search_fl@last$.$.$next	PTR struct chunk size(1) Largest target is 0

    __simple_search_fl@last$.$next	PTR struct chunk size(1) Largest target is 0

    __simple_search_fl@next$.$next	PTR struct chunk size(1) Largest target is 0

    __simple_search_fl@split$.$.$next	PTR struct chunk size(1) Largest target is 0

    __simple_search_fl@split$.$next	PTR struct chunk size(1) Largest target is 0

    sp____expand_heap	PTR void  size(2) Largest target is 0
		 -> __heap_hi(UNKNOWN), NULL(NULL[0]), 

    sp____simple_search_fl	PTR void  size(1) Largest target is 0
		 -> NULL(NULL[0]), 

    sp____simple_search_fl$.$next	PTR struct chunk size(1) Largest target is 0

    sp__gather_LED_info	PTR PTR struct . size(2) Largest target is 0
		 -> __heap_hi(UNKNOWN), NULL(NULL[0]), 

    sp__gather_LED_info$GPIO_port	PTR volatile unsigned char  size(2) Largest target is 1
		 -> PORTA(SFR0[1]), PORTB(SFR0[1]), PORTC(SFR0[1]), 

    sp__gather_LED_info$TRIS_port	PTR volatile unsigned char  size(2) Largest target is 1
		 -> TRISA(SFR1[1]), TRISB(SFR1[1]), TRISC(SFR1[1]), 

    sp__malloc	PTR void  size(2) Largest target is 0
		 -> __heap_hi(UNKNOWN), NULL(NULL[0]), 


Critical Paths under _main in COMMON

    None.

Critical Paths under _isr in COMMON

    _set_state_according_to_pwr_btn->_is_pwr_btn_pressed
    _get_conversion_result->___awdiv
    ___awdiv->___wmul
    _calculate_timer_counts->___flmul
    ___fladd->___flmul
    ___flmul->__Umul8_16
    ___fldiv->___flmul
    ___xxtofl->___awdiv

Critical Paths under _main in BANK0

    None.

Critical Paths under _isr in BANK0

    _supply_engine_power->_send_pulse
    _send_pulse->___xxtofl
    _is_crossing_zero_point->___fleq
    _get_conversion_result->___xxtofl
    ___fleq->_get_conversion_result
    _calculate_timer_counts->___fltol
    ___fltol->___flsub
    ___flsub->___fladd
    ___fladd->___fldiv
    ___fldiv->___flmul

Critical Paths under _main in BANK1

    None.

Critical Paths under _isr in BANK1

    _board_pwr_pulse->_sleep_us_thread1
    _sleep_us_thread1->_calculate_timer_counts
    _calculate_timer_counts->___fltol

Critical Paths under _main in BANK2

    None.

Critical Paths under _isr in BANK2

    None.

Call Graph Tables:

 ---------------------------------------------------------------------------------
 (Depth) Function   	        Calls       Base Space   Used Autos Params    Refs
 ---------------------------------------------------------------------------------
 (0) _main                                                 0     0      0       0
                       _global_setup
     _start_spectating_zero_crossing
 ---------------------------------------------------------------------------------
 (1) _start_spectating_zero_crossing                       0     0      0       0
                          _setup_ADC
                          _setup_RB5
               _start_adc_conversion
 ---------------------------------------------------------------------------------
 (2) _start_adc_conversion                                 0     0      0       0
 ---------------------------------------------------------------------------------
 (2) _setup_RB5                                            0     0      0       0
 ---------------------------------------------------------------------------------
 (2) _setup_ADC                                            0     0      0       0
 ---------------------------------------------------------------------------------
 (1) _global_setup                                         0     0      0       0
                          _setup_RC2
                          _setup_RC7
       _setup_engine_managment_ports
               _setup_timer_hardware
                      _turn_board_on
 ---------------------------------------------------------------------------------
 (2) _turn_board_on                                        0     0      0       0
                       _set_full_pwr
 ---------------------------------------------------------------------------------
 (3) _set_full_pwr                                         0     0      0       0
 ---------------------------------------------------------------------------------
 (2) _setup_timer_hardware                                 0     0      0       0
 ---------------------------------------------------------------------------------
 (2) _setup_engine_managment_ports                         0     0      0       0
                          _setup_RA1
                          _setup_RA2
 ---------------------------------------------------------------------------------
 (3) _setup_RA2                                            0     0      0       0
 ---------------------------------------------------------------------------------
 (3) _setup_RA1                                            0     0      0       0
 ---------------------------------------------------------------------------------
 (2) _setup_RC7                                            0     0      0       0
 ---------------------------------------------------------------------------------
 (2) _setup_RC2                                            0     0      0       0
 ---------------------------------------------------------------------------------
 Estimated maximum stack depth 3
 ---------------------------------------------------------------------------------
 (Depth) Function   	        Calls       Base Space   Used Autos Params    Refs
 ---------------------------------------------------------------------------------
 (4) _isr                                                  5     5      0   13471
                                             32 BANK1      5     5      0
                    _board_pwr_pulse
          _interrupt_caused_by_timer
             _is_adc_conversion_done
             _is_crossing_zero_point
                _reset_adc_interrupt
     _set_state_according_to_pwr_btn
                         _stop_timer
                _supply_engine_power
             i1_start_adc_conversion
 ---------------------------------------------------------------------------------
 (5) i1_start_adc_conversion                               0     0      0       0
 ---------------------------------------------------------------------------------
 (5) _supply_engine_power                                  0     0      0     931
                         _send_pulse
 ---------------------------------------------------------------------------------
 (6) _send_pulse                                          14    14      0     931
                                             14 BANK0      6     6      0
                            ___lwdiv
                           ___xxtofl
 ---------------------------------------------------------------------------------
 (7) ___lwdiv                                              7     3      4     340
                                              0 COMMON     7     3      4
 ---------------------------------------------------------------------------------
 (5) _stop_timer                                           2     0      2     133
                                              0 COMMON     2     0      2
 ---------------------------------------------------------------------------------
 (5) _set_state_according_to_pwr_btn                       0     0      0       0
                 _is_pwr_btn_pressed
                     _turn_board_off
                    i1_turn_board_on
 ---------------------------------------------------------------------------------
 (6) i1_turn_board_on                                      0     0      0       0
                     i1_set_full_pwr
 ---------------------------------------------------------------------------------
 (7) i1_set_full_pwr                                       0     0      0       0
 ---------------------------------------------------------------------------------
 (6) _turn_board_off                                       0     0      0       0
                        _set_low_pwr
 ---------------------------------------------------------------------------------
 (7) _set_low_pwr                                          0     0      0       0
 ---------------------------------------------------------------------------------
 (6) _is_pwr_btn_pressed                                   5     3      2       0
                                              0 COMMON     5     3      2
 ---------------------------------------------------------------------------------
 (5) _reset_adc_interrupt                                  0     0      0       0
 ---------------------------------------------------------------------------------
 (5) _is_crossing_zero_point                               4     2      2    2155
                                             36 BANK0      4     2      2
                             ___fleq
              _get_conversion_result
 ---------------------------------------------------------------------------------
 (6) _get_conversion_result                               10     6      4    1887
                                             14 BANK0     10     6      4
                            ___awdiv
                             ___wmul
                           ___xxtofl
 ---------------------------------------------------------------------------------
 (7) ___wmul                                               6     2      4     774
                                              0 COMMON     6     2      4
 ---------------------------------------------------------------------------------
 (7) ___awdiv                                              8     4      4     478
                                              6 COMMON     8     4      4
                             ___wmul (ARG)
 ---------------------------------------------------------------------------------
 (6) ___fleq                                              12     4      8     268
                                             24 BANK0     12     4      8
              _get_conversion_result (ARG)
 ---------------------------------------------------------------------------------
 (5) _is_adc_conversion_done                               5     3      2      24
                                              0 COMMON     5     3      2
 ---------------------------------------------------------------------------------
 (5) _interrupt_caused_by_timer                            2     0      2       0
                                              0 COMMON     2     0      2
 ---------------------------------------------------------------------------------
 (5) _board_pwr_pulse                                      0     0      0   10183
                   _sleep_us_thread1
 ---------------------------------------------------------------------------------
 (6) _sleep_us_thread1                                    10     8      2   10183
                                             22 BANK1     10     8      2
                           ___xxtofl
             _calculate_timer_counts
 ---------------------------------------------------------------------------------
 (7) _calculate_timer_counts                              16    12      4    9438
                                              6 BANK1     16    12      4
                            ___fladd
                            ___fldiv
                            ___flmul
                            ___flsub
                            ___fltol
                           ___xxtofl (ARG)
 ---------------------------------------------------------------------------------
 (8) ___fltol                                             10     6      4     318
                                             75 BANK0      4     0      4
                                              0 BANK1      6     6      0
                            ___flsub (ARG)
 ---------------------------------------------------------------------------------
 (8) ___flsub                                              8     0      8    2563
                                             67 BANK0      8     0      8
                            ___fladd
 ---------------------------------------------------------------------------------
 (9) ___fladd                                             20    12      8    2340
                                             47 BANK0     20    12      8
                            ___fldiv (ARG)
                            ___flmul (ARG)
 ---------------------------------------------------------------------------------
 (8) ___flmul                                             26    18      8    2560
                                              9 COMMON     5     5      0
                                              0 BANK0     21    13      8
                          __Umul8_16
 ---------------------------------------------------------------------------------
 (9) __Umul8_16                                            9     7      2     916
                                              0 COMMON     9     7      2
 ---------------------------------------------------------------------------------
 (8) ___fldiv                                             26    18      8    1477
                                             21 BANK0     26    18      8
                            ___flmul (ARG)
 ---------------------------------------------------------------------------------
 (7) ___xxtofl                                            14    10      4     589
                                              0 BANK0     14    10      4
                            ___awdiv (ARG)
                            ___lwdiv (ARG)
                             ___wmul (ARG)
 ---------------------------------------------------------------------------------
 Estimated maximum stack depth 9
 ---------------------------------------------------------------------------------

 Call Graph Graphs:

 _main (ROOT)
   _global_setup
     _setup_RC2
     _setup_RC7
     _setup_engine_managment_ports
       _setup_RA1
       _setup_RA2
     _setup_timer_hardware
     _turn_board_on
       _set_full_pwr
   _start_spectating_zero_crossing
     _setup_ADC
     _setup_RB5
     _start_adc_conversion

 _isr (ROOT)
   _board_pwr_pulse
     _sleep_us_thread1
       ___xxtofl
         ___awdiv (ARG)
           ___wmul (ARG)
         ___lwdiv (ARG)
         ___wmul (ARG)
       _calculate_timer_counts
         ___fladd
           ___fldiv (ARG)
             ___flmul (ARG)
               __Umul8_16
           ___flmul (ARG)
         ___fldiv
         ___flmul
         ___flsub
           ___fladd
         ___fltol
           ___flsub (ARG)
         ___xxtofl (ARG)
   _interrupt_caused_by_timer
   _is_adc_conversion_done
   _is_crossing_zero_point
     ___fleq
       _get_conversion_result (ARG)
         ___awdiv
         ___wmul
         ___xxtofl
     _get_conversion_result
   _reset_adc_interrupt
   _set_state_according_to_pwr_btn
     _is_pwr_btn_pressed
     _turn_board_off
       _set_low_pwr
     i1_turn_board_on
       i1_set_full_pwr
   _stop_timer
   _supply_engine_power
     _send_pulse
       ___lwdiv
       ___xxtofl
   i1_start_adc_conversion

 Address spaces:
Name               Size   Autos  Total    Cost      Usage
SFR3                 0      0       0       4        0.0%
BITSFR3              0      0       0       4        0.0%
BANK2               50      0       0       7        0.0%
BITBANK2            50      0       0       6        0.0%
SFR2                 0      0       0       5        0.0%
BITSFR2              0      0       0       5        0.0%
BANK1               50     25      3B       5       73.8%
BITBANK1            50      0       0       4        0.0%
SFR1                 0      0       0       2        0.0%
BITSFR1              0      0       0       2        0.0%
BANK0               50     4F      50       3      100.0%
BITBANK0            50      0       0       9        0.0%
SFR0                 0      0       0       1        0.0%
BITSFR0              0      0       0       1        0.0%
COMMON               E      E       E       1      100.0%
BITCOMMON            E      0       0       0        0.0%
CODE                 0      0       0       0        0.0%
DATA                 0      0      99      10        0.0%
ABS                  0      0      99       8        0.0%
NULL                 0      0       0       0        0.0%
STACK                0      0       0       2        0.0%
EEDATA             100      0       0       0        0.0%


Microchip Technology PIC Macro Assembler V2.45 build 20230818022343 
Symbol Table                                                                                   Mon Nov 13 18:26:03 2023

                __end_ofi1_set_full_pwr 0A3E            get_conversion_result@voltage 0032  
                          ___fldiv@aexp 004E                            ___fldiv@bexp 004D  
                          ___fldiv@sign 0046                                      l43 0AC8  
                                    l48 0A72                                      l49 0A72  
                          ___awdiv@sign 007B                                      fsr 0004  
                   ___wmul@multiplicand 0072                     __Umul8_16@word_mpld 0076  
                                   l111 0A7E                                     l210 0A6B  
                                   l114 0AF2                                     l213 0A52  
                                   l117 0A24                                     l134 0A88  
                                   l207 0A62                                     l153 0A59  
                                   l147 0A4B                                     l183 0A44  
                                   l255 0AA5                                     l167 0A20  
                                   _isr 0CBA                                     indf 0000  
               __end_of_board_pwr_pulse 0B0D                            ___flmul@aexp 002D  
                          ___flmul@bexp 002E                            ___flmul@sign 0028  
                          ___flmul@temp 0033                            ___flmul@prod 002F  
                          ___fltol@exp1 00A5                   ?_start_adc_conversion 0070  
                                  l2920 0A63                                    l2930 0A9C  
                                  l2922 0A21                                    l2940 0A3E  
                                  l2932 0A9F                                    l2924 0A96  
                                  l2916 0A53                                    l2918 0A5A  
                                  l2934 0AA0                                    l2926 0A99  
                                  l2942 0A1D                                    l2950 0AE8  
                                  l2944 0A4C                                    l2936 0AA3  
                                  l2928 0A9B                                    l2960 0AC5  
                                  l2952 0AB7                                    l2938 0A45  
                                  l2954 0AB9                                    l2946 0A75  
                                  l2962 0A7F                                    l2956 0ABC  
                                  l2948 0ADE                                    l2964 0A82  
                                  l2958 0ABF                                    l2966 0A85  
                                  l2968 0A6C                                    ?_isr 0070  
                                  i1l40 0CF3                                    i1l37 0CD0  
                                  _TMR2 0011                                    _brkp 00C9  
                                  _main 0A6C                                    btemp 007E  
                                  start 000F                         ___fldiv@new_exp 0047  
                         ?_global_setup 0070                         ?i1_set_full_pwr 0070  
                                 ??_isr 00C0                           ___fltol@sign1 00A4  
                       __end_of___fladd 05BB                                   ?_main 0070  
                       __end_of___fldiv 078A                         __end_of___awdiv 0DB5  
                       __end_of___flmul 0363                         __end_of___flsub 0B6D  
                       __end_of___fltol 0E4F                                   _ANSEL 011E  
                       ___awdiv@divisor 0076                         __end_of___lwdiv 0CBA  
                                 i1l122 0ADD                                   i1l131 0B90  
                                 i1l220 0B4A                                   i1l125 0A2F  
                                 i1l117 0A1C                                   i1l150 0A36  
                                 i1l160 0B0C                                   i1l128 0C75  
                                 i1l216 0C33                                   i1l153 0A3D  
                                 i1l170 0A14                                   i1l252 0FFF  
                                 i1l261 07F7                                   i1l190 0AB6  
                                 i1l159 0AFD                                   i1l167 0A18  
                                 i1l273 0BF0                                   i1l274 0C04  
                                 i1l186 0A95                                   i1l541 0D4D  
                                 i1l710 05BA                                   i1l366 0B9D  
                                 i1l535 0D1C                                   i1l519 0DB4  
                                 i1l279 0B2B                                   i1l560 0E4E  
                                 i1l536 0D38                                   i1l368 0BB5  
                                 i1l713 0B6C                                   i1l570 0E4E  
                                 i1l723 0611                                   i1l820 0ED2  
                                 i1l821 0EDE                                   i1l725 0789  
                                 i1l646 0CB9                                   i1l807 0E73  
                                 i1l671 0441                                   i1l567 0E37  
                                 i1l680 05BA                                   i1l809 0F08  
                                 i1l745 0775                                   i1l673 041A  
                                 i1l739 0703                                   i1l763 0362  
                                 i1l667 03BE                                   i1l692 052E  
                                 i1l782 0BCA                                   i1l784 0BDC  
                                 i1l688 050A                                   i1l769 02D2  
                                 i1l698 0550                         ___awdiv@counter 007A  
                                 _TMR1H 000F                                   _TMR1L 000E  
                                 _PORTA 0005                                   _PORTB 0006  
                                 _PORTC 0007                                   _TRISA 0085  
                                 _TRISB 0086                                   _TRISC 0087  
                                 _errno 00CF      calculate_timer_counts@secs_to_wait 00AA  
              ??_is_adc_conversion_done 0072                                   pclath 000A  
                _is_crossing_zero_point 0B6D                                   status 0003  
                                 wtemp0 007E            sleep_us_thread1@timer_counts 00BC  
                        ??_global_setup 0000                        ??_turn_board_off 0070  
                       __initialization 0011                     _reset_adc_interrupt 0A29  
                          __end_of_main 0A75              ?_interrupt_caused_by_timer 0070  
                                ??_main 0000        calculate_timer_counts@us_to_wait 00A6  
                    _is_pwr_btn_pressed 0A89                 ?i1_start_adc_conversion 0070  
                      ?_board_pwr_pulse 0070                    ?_reset_adc_interrupt 0070  
                ??_start_adc_conversion 0000                                  _ADRESH 001E  
                                _ADRESL 009E                     ?_is_pwr_btn_pressed 0070  
                      ___awdiv@dividend 0078                                  i1l2000 047F  
                                i1l2010 04E2                                  i1l2002 0480  
                                i1l2020 0512                                  i1l2012 04E6  
                                i1l2004 0489                                  i1l2100 0DC2  
                                i1l2030 052D                                  i1l2022 0517  
                                i1l2014 04E8                                  i1l2006 048E  
                                i1l2110 0DFB                                  i1l2200 065A  
                                i1l2032 0532                                  i1l2040 053E  
                                i1l2016 04ED                                  i1l2008 04A4  
                                i1l2120 0E0B                                  i1l2112 0DFF  
                                i1l2104 0DCD                                  i1l2210 0683  
                                i1l2202 0662                                  i1l2034 0535  
                                i1l2026 0520                                  i1l2018 04FC  
                                i1l2042 0542                                  i1l2130 0E28  
                                i1l2122 0E16                                  i1l2114 0E03  
                                i1l2106 0DF0                                  i1l2220 06A4  
                                i1l2212 0687                                  i1l2204 066A  
                                i1l2300 0048                                  i1l2060 058A  
                                i1l2052 0555                                  i1l2044 0543  
                                i1l2036 0537                                  i1l2028 0529  
                                i1l2132 0E3C                                  i1l2124 0E21  
                                i1l2108 0DF3                                  i1l2230 06C6  
                                i1l2222 06B2                                  i1l2214 0688  
                                i1l2206 066C                                  i1l2150 05C9  
                                i1l2142 05BB                                  i1l2310 0063  
                                i1l2302 0050                                  i1l2070 05A5  
                                i1l2054 055A                                  i1l2062 058E  
                                i1l2046 0547                                  i1l2038 053C  
                                i1l2134 0E41                                  i1l2232 06CF  
                                i1l2240 06E3                                  i1l2208 0671  
                                i1l2216 0691                                  i1l2224 06B6  
                                i1l2152 05CE                                  i1l2160 05DE  
                                i1l2144 05C0                                  i1l2400 02EA  
                                i1l2320 007A                                  i1l2312 0067  
                                i1l2304 0052                                  i1l2080 05B5  
                                i1l2072 05A6                                  i1l2064 0593  
                                i1l2056 0568                                  i1l2048 054D  
                                u200_20 041E                                  i1l2136 0B4B  
                                u200_21 041D                                  i1l2242 06E7  
                                i1l2234 06D3                                  i1l2226 06BC  
                                i1l2218 06A3                                  i1l2170 05F4  
                                i1l2162 05E6                                  i1l2154 05D3  
                                i1l2146 05C4                                  i1l2090 0BC4  
                                i1l2410 0325                                  i1l2402 02EE  
                                i1l2322 007C                                  i1l2314 0068  
                                i1l2306 005A                                  i1l2082 05B9  
                                i1l2074 05AA                                  i1l2066 0598  
                                i1l2058 056C                                  i1l2138 0B4F  
                                i1l2260 0738                                  i1l2252 0708  
                                i1l2244 06E8                                  i1l2236 06D4  
                                i1l2228 06C4                                  i1l2172 05F9  
                                i1l2180 0609                                  i1l2164 05EB  
                                i1l2156 05DB                                  i1l2148 05C8  
                                i1l2092 0BD3                                  i1l2084 0BB7  
                                i1l2420 0350                                  i1l2412 0334  
                                i1l2404 0307                                  i1l2340 00E5  
                                i1l2332 0097                                  i1l2324 0084  
                                i1l2316 006D                                  i1l2308 005F  
                                i1l2076 05AC                                  i1l2068 05A0  
                                i1l2270 076C                                  i1l2254 070D  
                                i1l2262 073E                                  i1l2246 06EC  
                                i1l2238 06DD                                  i1l2182 0619  
                                i1l2190 0632                                  i1l2174 05FE  
                                i1l2166 05EF                                  i1l2158 05DC  
                                i1l2094 0BD8                                  i1l2086 0BB9  
                                i1l2422 0351                                  i1l2414 033E  
                                i1l2406 030D                                  i1l2350 015A  
                                i1l2342 010D                                  i1l2334 00A3  
                                i1l2326 0089                                  i1l2318 0072  
                                i1l2078 05B0                                  i1l2430 0A30  
                                i1l2510 0C88                                  i1l2502 0C76  
                                i1l2280 0783                                  i1l2272 0774  
                                i1l2264 074B                                  i1l2256 071B  
                                i1l2248 0700                                  i1l2192 0637  
                                i1l2184 0625                                  i1l2176 0606  
                                i1l2168 05F3                                  i1l2088 0BC0  
                                i1l2416 0340                                  i1l2424 0356  
                                i1l2408 031A                                  i1l2360 01D2  
                                i1l2352 0177                                  i1l2344 0129  
                                i1l2336 00B0                                  i1l2328 008E  
                                u201_20 042B                                  i1l2440 0FF7  
                                i1l2520 0CA8                                  i1l2512 0C8C  
                                i1l2504 0C78                                  u201_21 042A  
                                i1l2530 0E57                                  i1l2274 0779  
                                i1l2266 0759                                  i1l2258 071F  
                                i1l2186 0629                                  i1l2178 0607  
                                i1l2426 035A                                  i1l2418 034C  
                                i1l2370 027E                                  i1l2362 01FB  
                                i1l2354 0183                                  i1l2346 0145  
                                i1l2338 00C9                                  i1l2290 0035  
                                i1l2098 0DB5                                  i1l2450 0BA4  
                                i1l2610 0C3E                                  i1l2522 0CAF  
                                i1l2514 0C90                                  i1l2506 0C7E  
                                i1l2540 0E84                                  i1l2532 0E5B  
                                i1l2276 077D                                  i1l2268 0768  
                                i1l2196 0640                                  i1l2380 02A3  
                                i1l2372 0287                                  i1l2364 0207  
                                i1l2356 01A0                                  i1l2348 014E  
                                i1l2292 0039                                  i1l1900 0384  
                                i1l2620 0797                                  i1l2700 0AC9  
                                i1l2460 0D4F                                  i1l2452 0BAB  
                                i1l2444 0B91                                  i1l2612 0C6D  
                                i1l2516 0CA1                                  i1l2508 0C81  
                                i1l2524 0CB5                                  i1l2550 0E9F  
                                i1l2542 0E87                                  i1l2534 0E6B  
                                i1l2278 077F                                  i1l2198 0652  
                                i1l2390 02BB                                  i1l2382 02AC  
                                i1l2374 0295                                  i1l2366 0230  
                                i1l2358 01B5                                  i1l2294 003D  
                                i1l1910 0398                                  i1l1902 0386  
                                i1l2438 0F09                                  i1l2630 07EE  
                                i1l2622 079D                                  i1l2702 0ACA  
                                i1l2470 0D63                                  i1l2462 0D53  
                                i1l2454 0BB1                                  i1l2446 0B93  
                                i1l2518 0CA7                                  i1l2560 0ECC  
                                i1l2552 0EAD                                  i1l2544 0E8B  
                                i1l2536 0E7B                                  i1l2528 0E52  
                                i1l2392 02CF                                  i1l2376 029E  
                                i1l2384 02B2                                  i1l2368 0256  
                                i1l2296 003E                                  i1l2288 0030  
                                i1l1920 03AB                                  i1l1912 039C  
                                i1l1904 038E                                  i1l2632 07EF  
                                i1l2624 07D2                                  i1l2616 078A  
                                i1l2704 0AD0                                  i1l2480 0D79  
                                i1l2472 0D67                                  i1l2464 0D58  
                                i1l2448 0B97                                  i1l2608 0C34  
                                i1l2712 0A29                                  i1l2720 0AAF  
                                i1l2640 0C05                                  i1l2570 0EFF  
                                i1l2562 0ED6                                  i1l2554 0EB6  
                                i1l2546 0E94                                  i1l2386 02B6  
                                i1l2378 02A2                                  i1l2298 0043  
                                i1l1930 03C8                                  i1l1922 03B3  
                                i1l1914 03A0                                  i1l1906 0391  
                                i1l2626 07E7                                  i1l2618 0791  
                                i1l2730 0B00                                  i1l2706 0AD4  
                                i1l2490 0D99                                  i1l2482 0D7D  
                                i1l2474 0D69                                  i1l2466 0D5A  
                                i1l2458 0D4E                                  i1l2714 0B6D  
                                i1l2634 0A11                                  i1l2650 0C32  
                                i1l2642 0C2D                                  i1l2802 0A19  
                                i1l2810 0CD9                                  i1l2572 0F00  
                                i1l2564 0EE0                                  i1l2556 0EBD  
                                i1l2548 0E9B                                  i1l2396 02D7  
                                i1l2388 02B7                                  i1l1940 03D4  
                                i1l1932 03CC                                  i1l1924 03B4  
                                i1l1916 03A1                                  i1l1908 0397  
                                i1l2628 07ED                                  i1l2732 0B09  
                                i1l2708 0AD6                                  i1l2660 0D4C  
                                i1l2652 0CFE                                  i1l2492 0DA0  
                                i1l2484 0D81                                  i1l2476 0D6F  
                                i1l2468 0D5E                                  i1l2636 0A89  
                                i1l2724 0AB3                                  i1l2644 0C2D  
                                i1l2740 0B38                                  i1l2820 0CF0  
                                i1l2812 0CDC                                  i1l2804 0CBA  
                                u210_25 0482                                  u202_25 042E  
                                i1l2566 0EF6                                  i1l2558 0EC8  
                                i1l2398 02DC                                  i1l1950 03DE  
                                i1l1942 03D6                                  i1l1934 03CE  
                                i1l1918 03A6                                  i1l1926 03B6  
                                i1l2726 0AF3                                  i1l2670 0BEB  
                                i1l2654 0D14                                  i1l2486 0D92  
                                i1l2478 0D72                                  i1l2494 0DA6  
                                i1l2718 0AA6                                  i1l2646 0C30  
                                i1l2742 0B44                                  i1l2734 0B2C  
                                i1l2814 0CE7                                  i1l2806 0CC3  
                                i1l2568 0EFB                                  u211_20 04A4  
                                u203_20 0441                                  i1l1960 03E8  
                                i1l1952 03E0                                  i1l1944 03D8  
                                i1l1936 03D0                                  i1l1928 03C4  
                                i1l2680 0C02                                  i1l2656 0D30  
                                i1l2496 0DAB                                  i1l2488 0D98  
                                i1l2576 0A37                                  i1l2664 0A15  
                                i1l2648 0C31                                  i1l2816 0CEA  
                                i1l2808 0CC9                                  u211_21 04A3  
                                u203_21 0440                                  i1l1970 0425  
                                i1l1954 03E2                                  i1l1946 03DA  
                                i1l1938 03D2                                  i1l1962 03EA  
                                i1l1890 0370                                  i1l2674 0BF5  
                                i1l2666 0BDD                                  i1l2658 0D4A  
                                i1l2498 0DB0                                  i1l2738 0B35  
                                i1l2818 0CED                                  u211_23 04A0  
                                i1l1972 0427                                  i1l1980 0439  
                                i1l1964 03EB                                  i1l1956 03E4  
                                i1l1948 03DC                                  i1l1892 0371  
                                i1l1884 0363                                  i1l2676 0BFD  
                                i1l2668 0BE3                                  i1l2692 0B1C  
                                i1l2684 0B0D                                  i1l1990 046A  
                                i1l1982 0445                                  i1l1974 042B  
                                i1l1966 0402                                  i1l1958 03E6  
                                i1l1894 0376                                  i1l1886 0368  
                                i1l2694 0B23                                  i1l2686 0B13  
                                u220_20 053C                                  i1l1992 046E  
                                i1l1984 044A                                  u204_20 0445  
                                i1l1976 042C                                  i1l1968 041E  
                                i1l1896 037B                                  i1l1888 036C  
                                i1l2696 0B27                                  i1l2688 0B17  
                                u220_21 053B                                  u212_21 04BB  
                                u204_21 0444                                  u212_22 04BC  
                                i1l1994 0472                                  i1l1978 0435  
                                i1l1898 0383                                  u212_23 04C1  
                                u212_24 04C2                                  i1l1996 0479  
                                i1l1988 0453                                  u300_25 0297  
                                u212_25 04C7                                  u212_26 04C8  
                                i1l1998 047B                                  u301_20 02A2  
                                u221_20 0542                                  u213_20 04CF  
                                u205_20 044A                                  u301_21 02A1  
                                u221_21 0541                                  u213_21 04D0  
                                u205_21 0449                                  u213_22 04D5  
                                u213_23 04D6                                  u310_20 031A  
                                u230_20 0598                                  u222_20 0547  
                                u214_20 04ED                                  u310_21 0319  
                                u230_21 0597                                  u222_21 0546  
                                u214_21 04EC                                  u206_21 045C  
                                u206_22 0463                                  u206_23 046A  
                                u310_25 0316                                  u302_25 02A5  
                                u311_20 0334                                  u303_20 02B6  
                                u231_20 05A5                                  u223_20 054D  
                                u215_20 0512                                  u207_20 046E  
                                u311_21 0333                                  u303_21 02B5  
                                u231_21 05A4                                  u223_21 054C  
                                u215_21 0511                                  u207_21 046D  
                                u311_25 0330                                  u312_20 0350  
                                u304_20 02BB                                  u232_20 05AA  
                                u224_20 0554                                  u216_20 0517  
                                u208_20 0472                                  u240_20 0E0A  
                                u312_21 034F                                  u304_21 02BA  
                                u232_21 05A9                                  u224_21 0553  
                                u216_21 0516                                  u208_21 0471  
                                u240_21 0E09                                  u320_25 0D73  
                                u305_20 02CF                                  u233_20 05B9  
                                u225_20 055A                                  u209_20 047F  
                                u321_20 0D81                                  u313_20 0B97  
                                u305_21 02CE                                  u233_21 05B8  
                                u225_21 0559                                  u209_21 047E  
                                u321_21 0D80                                  u313_21 0B96  
                                u217_25 0522                                  u241_25 0E0C  
                                u250_20 05F3                                  u234_20 0BC4  
                                u306_20 02D6                                  u226_20 056C  
                                u218_20 052D                                  u242_20 0E20  
                                u250_21 05F2                                  u234_21 0BC3  
                                u306_21 02D5                                  u226_21 056B  
                                u218_21 052C                                  u242_21 0E1F  
                                u322_25 0D82                                  u314_25 0B9E  
                                u330_25 0C91                                  u251_20 05F9  
                                u307_20 02DC                                  u227_20 057B  
                                u219_20 0532                                  u243_20 0E27  
                                u323_20 0D92                                  u331_20 0CA1  
                                u251_21 05F8                                  u307_21 02DB  
                                u219_21 0531                                  u243_21 0E26  
                                u323_21 0D91                                  u331_21 0CA0  
                                u235_25 0BCB                                  u227_25 0576  
                                u323_25 0D8E                                  u315_25 0BA5  
                                u331_25 0C9D                                  u340_20 0EBC  
                                u260_20 06A3                                  u252_20 05FE  
                                u236_20 0BD8                                  u308_20 02EE  
                                u228_20 058A                                  u316_20 0BB1  
                                u340_21 0EBB                                  u260_21 06A2  
                                u252_21 05FD                                  u236_21 0BD7  
                                u308_21 02ED                                  u228_21 0589  
                                u316_21 0BB0                                  u260_25 069F  
                                u244_25 0E2A                                  u324_25 0D9A  
                                u332_25 0CA9                                  u261_20 06BC  
                                u253_20 0619                                  u309_20 02FD  
                                u229_20 0593                                  u245_20 0E3C  
                                u237_20 0DC2                                  u325_20 0DA6  
                                u317_20 0D53                                  u333_20 0CB5  
                                u261_21 06BB                                  u253_21 0618  
                                u229_21 0592                                  u245_21 0E3B  
                                u237_21 0DC1                                  u325_21 0DA5  
                                u317_21 0D52                                  u333_21 0CB4  
                                u341_25 0EC1                                  u309_25 02F8  
                                u342_20 0ECC                                  u334_20 0E57  
                                u270_20 070D                                  u262_20 06C4  
                                u254_20 0637                                  u190_20 037B  
                                u246_20 0E41                                  u238_20 0DEB  
                                u350_20 07E0                                  u326_20 0DAB  
                                u318_20 0D5E                                  u342_21 0ECB  
                                u334_21 0E56                                  u270_21 070C  
                                u262_21 06C3                                  u254_21 0636  
                                u190_21 037A                                  u246_21 0E40  
                                u326_21 0DAA                                  u318_21 0D5D  
                                u238_25 0DE6                                  u350_25 07DB  
                                u343_20 0ED2                                  u335_20 0E5B  
                                u271_20 071F                                  u255_20 0671  
                                u247_20 05C8                                  u191_20 0397  
                                u239_20 0E03                                  u351_20 07F7  
                                u319_20 0D6F                                  u327_20 0C7E  
                                u343_21 0ED1                                  u335_21 0E5A  
                                u271_21 071E                                  u255_21 0670  
                                u247_21 05C7                                  u191_21 0396  
                                u239_21 0E02                                  u351_21 07F6  
                                u319_21 0D6E                                  u327_21 0C7D  
                                u263_25 06C8                                  u344_20 0ED6  
                                u336_20 0E7B                                  u272_20 072E  
                                u264_20 06D3                                  u248_20 05CE  
                                u280_20 006D                                  u192_20 03A0  
                                u352_20 0D14                                  u360_20 0B23  
                                u344_21 0ED5                                  u336_21 0E7A  
                                u264_21 06D2                                  u248_21 05CD  
                                u280_21 006C                                  u192_21 039F  
                                u352_21 0D13                                  u360_21 0B22  
                                u272_25 0729                                  u256_25 0673  
                                u328_25 0C82                                  u345_20 0EEB  
                                u273_20 074B                                  u249_20 05D3  
                                u281_20 0072                                  u193_20 03A6  
                                u361_20 0AD0                                  u353_20 0D30  
                                u329_20 0C90                                  u273_21 074A  
                                u249_21 05D2                                  u281_21 0071  
                                u193_21 03A5                                  u361_21 0ACF  
                                u353_21 0D2F                                  u329_21 0C8F  
                                u345_25 0EE6                                  u337_25 0E8C  
                                u273_25 0747                                  u265_25 06D6  
                                u257_25 067C                                  u346_20 0EFB  
                                u338_20 0E9A                                  u274_20 0768  
                                u266_20 06E7                                  u258_20 0687  
                                u282_20 0089                                  u194_20 03AB  
                                u362_20 0AD4                                  u354_20 0D4A  
                                u346_21 0EFA                                  u338_21 0E99  
                                u274_21 0767                                  u266_21 06E6  
                                u258_21 0686                                  u290_21 0192  
                                u282_21 0088                                  u194_21 03AA  
                                u362_21 0AD3                                  u354_21 0D49  
                                u290_22 0199                                  u290_23 01A0  
                                u274_25 0764                                  u354_25 0D46  
                                u347_20 0EFF                                  u275_20 077D  
                                u267_20 06EC                                  u283_20 008E  
                                u195_20 03C4                                  u355_20 0BE3  
                                u363_20 0AAF                                  u347_21 0EFE  
                                u275_21 077C                                  u267_21 06EB  
                                u283_21 008D                                  u195_21 03C3  
                                u355_21 0BE2                                  u363_21 0AAE  
                                u339_25 0EAE                                  u259_25 068A  
                                u291_25 01A2                                  u268_20 0700  
                                u276_20 003D                                  u196_20 03C8  
                                u188_20 0370                                  u348_20 0791  
                                u364_20 0AFC                                  u356_20 0BEB  
                                u268_21 06FF                                  u292_21 01C4  
                                u284_21 00D7                                  u276_21 003C  
                                u196_21 03C7                                  u188_21 036F  
                                u348_21 0790                                  u364_21 0AFB  
                                u356_21 0BEA                                  u292_22 01CB  
                                u284_22 00DE                                  u292_23 01D2  
                                u284_23 00E5                                  u269_20 0707  
                                u277_20 0043                                  u197_20 0402  
                                u189_20 0376                                  u349_20 0796  
                                u357_20 0BF5                                  u365_20 0B34  
                                u269_21 0706                                  u293_21 01ED  
                                u285_21 00F3                                  u277_21 0042  
                                u197_21 0401                                  u189_21 0375  
                                u349_21 0795                                  u357_21 0BF4  
                                u365_21 0B33                                  u293_22 01F4  
                                u285_22 00FA                                  u293_23 01FB  
                                u285_23 0101                                  u197_25 03FE  
                                u278_20 0048                                  u198_20 040D  
                                u358_20 0BFD                                  u366_20 0B44  
                                u294_21 0216                                  u286_21 011B  
                                u278_21 0047                                  u198_21 040B  
                                u358_21 0BFC                                  u366_21 0B43  
                                u294_22 021D                                  u286_22 0122  
                                u294_23 0224                                  u286_23 0129  
                                u366_25 0B40                                  u295_20 023C  
                                u279_20 0067                                  u199_20 040E  
                                u359_20 0B13                                  u367_20 0CC9  
                                u287_21 0137                                  u279_21 0066  
                                u359_21 0B12                                  u367_21 0CC8  
                                u287_22 013E                                  u287_23 0145  
                                u295_25 0237                                  u368_20 0CD9  
                                u296_21 0248                                  u368_21 0CD8  
                                u296_22 024F                                  u296_23 0256  
                                u288_25 0147                                  u297_20 0264  
                                u369_20 0CE7                                  u289_21 0169  
                                u369_21 0CE6                                  u289_22 0170  
                                u289_23 0177                                  u297_25 025F  
                                u298_21 0270                                  u298_22 0277  
                                u298_23 027E                                  u299_25 0280  
                                _TMR1IF 0060  __end_of_set_state_according_to_pwr_btn 0AB7  
        _set_state_according_to_pwr_btn 0AA6                        __end_of___xxtofl 0F09  
                                ___fleq 0CFE                               ??___fladd 0057  
                                ___wmul 0B91                               ??___fldiv 003D  
                             ??___awdiv 007A                    ??_is_pwr_btn_pressed 0072  
                          ?_set_low_pwr 0070                               ??___flmul 0079  
                             ??___flsub 007E                               ??___fltol 00A0  
                             ??___lwdiv 0074                        ___awdiv@quotient 007C  
        __end_ofi1_start_adc_conversion 0A1D                                  saved_w 007E  
                 ??_reset_adc_interrupt 0070                ??_calculate_timer_counts 007E  
                          ___xxtofl@arg 002A                            ___xxtofl@exp 0029  
                          ___xxtofl@val 0020                              ___fleq@ff1 0038  
                            ___fleq@ff2 003C                 __end_of__initialization 002D  
    calculate_timer_counts@timer_counts 00AE                              ___fltol@f1 006B  
                            ___freelist 006F                          __pcstackCOMMON 0070  
                          __pidataBANK1 0A25                       ??i1_turn_board_on 0070  
                      _sleep_us_thread1 078A              _is_adc_conversion_done$443 0074  
                  __end_of_global_setup 0AC9                   _get_conversion_result 0C34  
                            __pbssBANK0 006F                              __pbssBANK1 00C5  
                      ??i1_set_full_pwr 0070    __end_of_setup_engine_managment_ports 0A53  
          _setup_engine_managment_ports 0A4C                       __end_of__Umul8_16 0BDD  
                            __pmaintext 0A6C                     _supply_engine_power 0B2C  
                               ?___fleq 0038                                 ?___wmul 0070  
                            __pintentry 0004                  _is_adc_conversion_done 0AC9  
__end_of_start_spectating_zero_crossing 0A89          _start_spectating_zero_crossing 0A7F  
                             ?___xxtofl 0020                    ?_supply_engine_power 0070  
               ?_is_crossing_zero_point 0044                           _turn_board_on 0A1D  
         ?_setup_engine_managment_ports 0070                           ?_set_full_pwr 0070  
                               ___fladd 0363                                 ___fldiv 05BB  
                               ___awdiv 0D4E                                 ___flmul 0030  
                               ___flsub 0B4B                                 ___fltol 0DB5  
           ??_interrupt_caused_by_timer 0072                                 ___lwdiv 0C76  
                          isr@timer_num 00C3                               _ANSELbits 011E  
                               __ptext1 0A7F                                 __ptext2 0A21  
                               __ptext3 0A75                                 __ptext4 0ADE  
                               __ptext5 0AB7                                 __ptext6 0A1D  
                               __ptext7 0A53                                 __ptext8 0A96  
                               __ptext9 0A4C                               _T1CONbits 0010  
                             _T2CONbits 0012                              ??___xxtofl 0024  
                ?_get_conversion_result 002E                   ??_supply_engine_power 007E  
        __end_of_is_crossing_zero_point 0B91            __end_of_setup_timer_hardware 0AA6  
                        ?_turn_board_on 0070                                 clrloop0 07F9  
                  end_of_initialization 002D                              _send_pulse 0C05  
                     __end_of_setup_ADC 0AF3                       __end_of_setup_RA1 0A63  
                     __end_of_setup_RA2 0A6C                       __end_of_setup_RC2 0A45  
                     __end_of_setup_RB5 0A7F                       __end_of_setup_RC7 0A4C  
                        ??_set_full_pwr 0000                  _calculate_timer_counts 0F09  
                             _PORTAbits 0005                               _PORTCbits 0007  
                           ___fladd@grs 0062                           ___xxtofl@sign 0028  
                             _TRISAbits 0085                               _TRISBbits 0086  
                             _TRISCbits 0087                             ___fldiv@grs 0049  
                           ___fldiv@rem 0042               _interrupt_caused_by_timer 0BDD  
                           ___flmul@grs 0029                         i1_turn_board_on 0A15  
              __end_of_sleep_us_thread1 07F8                     stop_timer@timer_num 0070  
                          _global_setup 0AB7                              _stop_timer 0B0D  
                        __end_of___fleq 0D4E                          __end_of___wmul 0BB6  
        ??_setup_engine_managment_ports 0000             __end_of_reset_adc_interrupt 0A30  
                        _timer1_running 00D3                     start_initialization 0011  
                       ??_turn_board_on 0000                          _timer2_running 00D1  
                            malloc@lock 00C5                             __end_of_isr 0CFE  
                           ?_send_pulse 0070                 ?_is_adc_conversion_done 0070  
                              ??___fleq 0040                                ??___wmul 0074  
                  _setup_timer_hardware 0A96                               __Umul8_16 0BB6  
                           __pdataBANK1 00D7                               ___fladd@a 0053  
                             ___fladd@b 004F                               ___heap_hi 0170  
                             ___fldiv@a 0035                               ___fldiv@b 0039  
                             ___flmul@a 0024                               ___flmul@b 0020  
                             ___flsub@a 0063                               ___flsub@b 0067  
                             ___latbits 0001                           __pcstackBANK0 0020  
                         __pcstackBANK1 00A0                           __pcstackBANK2 0000  
                  __end_of_set_full_pwr 0A5A    calculate_timer_counts@counts_to_wait 00B2  
               __end_ofi1_turn_board_on 0A19         ?_start_spectating_zero_crossing 0070  
      ??_start_spectating_zero_crossing 0000          __end_of_is_adc_conversion_done 0ADE  
                      ___lwdiv@dividend 0072                             ?_stop_timer 0070  
                     ??_board_pwr_pulse 007E                   ?_setup_timer_hardware 0070  
                              ?___fladd 004F                                ?___fldiv 0035  
                              ?___awdiv 0076                ??i1_start_adc_conversion 0070  
                              ?___flmul 0020                                ?___flsub 0063  
                              ?___fltol 006B                              ?__Umul8_16 0070  
                              ?___lwdiv 0070                 ??_get_conversion_result 007E  
                           _desired_lvl 00D7                        ___lwdiv@quotient 0074  
                     interrupt_function 0004                          ___wmul@product 0074  
                              _IOCAbits 0096                                _IOCBbits 0116  
                             clear_ram0 07F8                                _PIE1bits 008C  
               ?_calculate_timer_counts 00A6                                _PIR1bits 000C  
                         ??_set_low_pwr 0070                               _setup_ADC 0ADE  
                             _setup_RA1 0A5A                               _setup_RA2 0A63  
                             _setup_RC2 0A3E                               _setup_RB5 0A75  
                             _setup_RC7 0A45             __end_of_supply_engine_power 0B4B  
                             _power_lvl 00D5                          _turn_board_off 0A11  
                            _ADCON0bits 001F                              _ADCON1bits 009F  
                     ___wmul@multiplier 0070                                _WPUAbits 0095  
                      ?i1_turn_board_on 0070                               malloc@end 00CB  
                             malloc@cur 00CD          __end_of_calculate_timer_counts 1000  
                     ?_sleep_us_thread1 00B6                  ??_setup_timer_hardware 0000  
     __end_of_interrupt_caused_by_timer 0C05                      ??_sleep_us_thread1 00B8  
                            ?_setup_ADC 0070            __end_of_start_adc_conversion 0A25  
                            ?_setup_RA1 0070                              ?_setup_RA2 0070  
                            ?_setup_RC2 0070                              ?_setup_RB5 0070  
                            ?_setup_RC7 0070                             ??__Umul8_16 0072  
                __end_of_turn_board_off 0A15                              _ANSELHbits 011F  
                   __end_of_set_low_pwr 0A37                                ___xxtofl 0E4F  
                           _current_lvl 00D9                         ___lwdiv@divisor 0070  
                       ___lwdiv@counter 0076                                __ptext10 0A63  
                              __ptext11 0A5A                                __ptext20 0AA6  
                              __ptext12 0A45                                __ptext21 0A15  
                              __ptext13 0A3E                                __ptext30 0D4E  
                              __ptext22 0A37                                __ptext14 0CBA  
                              __ptext31 0CFE                                __ptext23 0A11  
                              __ptext15 0A19                                __ptext40 0030  
                              __ptext32 0AC9                                __ptext24 0A30  
                              __ptext16 0B2C                                __ptext41 0BB6  
                              __ptext33 0BDD                                __ptext25 0A89  
                              __ptext17 0C05                                __ptext42 05BB  
                              __ptext34 0AF3                                __ptext26 0A29  
                              __ptext18 0C76                                __ptext43 0E4F  
                              __ptext35 078A                                __ptext27 0B6D  
                              __ptext19 0B0D                                __ptext36 0F09  
                              __ptext28 0C34                                __ptext37 0DB5  
                              __ptext29 0B91                                __ptext38 0B4B  
                              __ptext39 0363                            ??_send_pulse 002E  
            __end_of_is_pwr_btn_pressed 0A96                            _set_full_pwr 0A53  
                       ?_turn_board_off 0070                ??_is_crossing_zero_point 0046  
                  sleep_us_thread1@time 00B6        ??_set_state_according_to_pwr_btn 0075  
       ?_set_state_according_to_pwr_btn 0070                              _INTCONbits 000B  
                    __end_of_send_pulse 0C34                   __end_of_turn_board_on 0A21  
                i1_start_adc_conversion 0A19                                intlevel1 0000  
                       _board_pwr_pulse 0AF3                              _OSCCONbits 008F  
                          ??_stop_timer 0072                             ??_setup_ADC 0000  
                           ??_setup_RA1 0000                             ??_setup_RA2 0000  
                           ??_setup_RC2 0000                             ??_setup_RB5 0000  
                           ??_setup_RC7 0000                             _set_low_pwr 0A30  
                        i1_set_full_pwr 0A37                  __Umul8_16@multiplicand 0070  
         __end_of_get_conversion_result 0C76            get_conversion_result@adc_res 0036  
                         ___fladd@signs 005F                      __end_of_stop_timer 0B2C  
                  _start_adc_conversion 0A21                            ___fladd@aexp 0060  
                          ___fladd@bexp 0061                    __Umul8_16@multiplier 0078  
                     __Umul8_16@product 0074  
